
build_dir/CMakeFiles/libWAVM.dir/Lib/Runtime/Atomics.cpp.o:	file format elf64-littleaarch64

RELOCATION RECORDS FOR [.text]:
OFFSET           TYPE                     VALUE
000000000000000c R_AARCH64_ADR_PREL_PG_HI21 .bss+0x8
0000000000000010 R_AARCH64_ADD_ABS_LO12_NC .bss+0x8
0000000000000020 R_AARCH64_ADR_PREL_PG_HI21 .bss
0000000000000024 R_AARCH64_ADD_ABS_LO12_NC .bss
0000000000000030 R_AARCH64_ADR_PREL_PG_HI21 .bss+0x8
0000000000000034 R_AARCH64_ADD_ABS_LO12_NC .bss+0x8
0000000000000038 R_AARCH64_CALL26         __cxa_guard_acquire
0000000000000040 R_AARCH64_ADR_GOT_PAGE   _ZN4WAVM10Intrinsics6ModuleD1Ev
0000000000000044 R_AARCH64_LD64_GOT_LO12_NC _ZN4WAVM10Intrinsics6ModuleD1Ev
0000000000000048 R_AARCH64_ADR_PREL_PG_HI21 .bss
000000000000004c R_AARCH64_ADD_ABS_LO12_NC .bss
0000000000000050 R_AARCH64_ADR_PREL_PG_HI21 __dso_handle
0000000000000054 R_AARCH64_ADD_ABS_LO12_NC __dso_handle
000000000000005c R_AARCH64_CALL26         __cxa_atexit
0000000000000064 R_AARCH64_CALL26         __cxa_guard_release
000000000000006c R_AARCH64_ADR_PREL_PG_HI21 .bss
0000000000000070 R_AARCH64_ADD_ABS_LO12_NC .bss
000000000000008c R_AARCH64_ADR_GOT_PAGE   _ZN4WAVM7Runtime14ExceptionTypes28misalignedAtomicMemoryAccessE
0000000000000090 R_AARCH64_LD64_GOT_LO12_NC _ZN4WAVM7Runtime14ExceptionTypes28misalignedAtomicMemoryAccessE
00000000000000a0 R_AARCH64_CALL26         _Znwm
00000000000000bc R_AARCH64_CALL26         _ZN4WAVM7Runtime14throwExceptionEPNS0_13ExceptionTypeERKNSt3__16vectorINS_2IR13UntaggedValueENS3_9allocatorIS6_EEEE
00000000000000d4 R_AARCH64_CALL26         _ZdlPv
00000000000000dc R_AARCH64_CALL26         _Unwind_Resume
0000000000000104 R_AARCH64_CALL26         _ZN4WAVM7Runtime24getMemoryFromRuntimeDataEPNS0_18ContextRuntimeDataEm
000000000000013c R_AARCH64_CALL26         _ZN4WAVM8Platform5Mutex4lockEv
0000000000000170 R_AARCH64_CALL26         _ZN4WAVM8Platform5Event6signalEv
000000000000019c R_AARCH64_CALL26         memmove
00000000000001ac R_AARCH64_CALL26         _ZN4WAVM8Platform5Mutex6unlockEv
00000000000001e8 R_AARCH64_ADR_GOT_PAGE   _ZN4WAVM7Runtime14ExceptionTypes23outOfBoundsMemoryAccessE
00000000000001ec R_AARCH64_LD64_GOT_LO12_NC _ZN4WAVM7Runtime14ExceptionTypes23outOfBoundsMemoryAccessE
000000000000020c R_AARCH64_CALL26         _ZNSt3__16vectorIN4WAVM2IR13UntaggedValueENS_9allocatorIS3_EEEC2ESt16initializer_listIS3_E
0000000000000218 R_AARCH64_CALL26         _ZN4WAVM7Runtime14throwExceptionEPNS0_13ExceptionTypeERKNSt3__16vectorINS_2IR13UntaggedValueENS3_9allocatorIS6_EEEE
000000000000021c R_AARCH64_ADR_GOT_PAGE   _ZN4WAVM7Runtime14ExceptionTypes29integerDivideByZeroOrOverflowE
0000000000000220 R_AARCH64_LD64_GOT_LO12_NC _ZN4WAVM7Runtime14ExceptionTypes29integerDivideByZeroOrOverflowE
0000000000000234 R_AARCH64_CALL26         _ZN4WAVM7Runtime14throwExceptionEPNS0_13ExceptionTypeERKNSt3__16vectorINS_2IR13UntaggedValueENS3_9allocatorIS6_EEEE
000000000000024c R_AARCH64_CALL26         __clang_call_terminate
0000000000000264 R_AARCH64_CALL26         _ZdlPv
000000000000026c R_AARCH64_CALL26         _Unwind_Resume
0000000000000278 R_AARCH64_CALL26         _ZN4WAVM8Platform5Mutex4LockD2Ev
0000000000000280 R_AARCH64_CALL26         _Unwind_Resume
00000000000002b4 R_AARCH64_CALL26         _ZN4WAVM7Runtime24getMemoryFromRuntimeDataEPNS0_18ContextRuntimeDataEm
00000000000002c8 R_AARCH64_CALL26         _ZN4WAVM7Runtime29getValidatedMemoryOffsetRangeEPNS0_6MemoryEmm
00000000000002dc R_AARCH64_CALL26         _ZN4WAVM8Platform5Mutex4lockEv
00000000000002e0 R_AARCH64_ADR_PREL_PG_HI21 .data.rel.ro+0x30
00000000000002e4 R_AARCH64_ADD_ABS_LO12_NC .data.rel.ro+0x30
0000000000000300 R_AARCH64_CALL26         _ZN4WAVM7Runtime25unwindSignalsAsExceptionsERKNSt3__18functionIFvvEEE
000000000000033c R_AARCH64_TLSDESC_ADR_PAGE21 __tls_guard
0000000000000340 R_AARCH64_TLSDESC_LD64_LO12 __tls_guard
0000000000000344 R_AARCH64_TLSDESC_ADD_LO12 __tls_guard
0000000000000348 R_AARCH64_TLSDESC_CALL   __tls_guard
0000000000000354 R_AARCH64_TLSDESC_ADR_PAGE21 threadWakeEvent
0000000000000358 R_AARCH64_TLSDESC_LD64_LO12 threadWakeEvent
000000000000035c R_AARCH64_TLSDESC_ADD_LO12 threadWakeEvent
0000000000000360 R_AARCH64_TLSDESC_CALL   threadWakeEvent
0000000000000370 R_AARCH64_CALL26         _Znwm
0000000000000378 R_AARCH64_CALL26         _ZN4WAVM8Platform5EventC1Ev
000000000000037c R_AARCH64_TLSDESC_ADR_PAGE21 __tls_guard
0000000000000380 R_AARCH64_TLSDESC_LD64_LO12 __tls_guard
0000000000000384 R_AARCH64_TLSDESC_ADD_LO12 __tls_guard
0000000000000388 R_AARCH64_TLSDESC_CALL   __tls_guard
0000000000000394 R_AARCH64_TLSDESC_ADR_PAGE21 threadWakeEvent
0000000000000398 R_AARCH64_TLSDESC_LD64_LO12 threadWakeEvent
000000000000039c R_AARCH64_TLSDESC_ADD_LO12 threadWakeEvent
00000000000003a0 R_AARCH64_TLSDESC_CALL   threadWakeEvent
00000000000003b4 R_AARCH64_CALL26         _ZN4WAVM8Platform5EventD1Ev
00000000000003bc R_AARCH64_CALL26         _ZdlPv
00000000000003c0 R_AARCH64_TLSDESC_ADR_PAGE21 __tls_guard
00000000000003c4 R_AARCH64_TLSDESC_LD64_LO12 __tls_guard
00000000000003c8 R_AARCH64_TLSDESC_ADD_LO12 __tls_guard
00000000000003cc R_AARCH64_TLSDESC_CALL   __tls_guard
00000000000003d8 R_AARCH64_TLSDESC_ADR_PAGE21 threadWakeEvent
00000000000003dc R_AARCH64_TLSDESC_LD64_LO12 threadWakeEvent
00000000000003e0 R_AARCH64_TLSDESC_ADD_LO12 threadWakeEvent
00000000000003e4 R_AARCH64_TLSDESC_CALL   threadWakeEvent
0000000000000410 R_AARCH64_CALL26         _ZN4WAVM8Platform5Mutex6unlockEv
000000000000042c R_AARCH64_TLSDESC_ADR_PAGE21 __tls_guard
0000000000000430 R_AARCH64_TLSDESC_LD64_LO12 __tls_guard
0000000000000434 R_AARCH64_TLSDESC_ADD_LO12 __tls_guard
0000000000000438 R_AARCH64_TLSDESC_CALL   __tls_guard
0000000000000444 R_AARCH64_TLSDESC_ADR_PAGE21 threadWakeEvent
0000000000000448 R_AARCH64_TLSDESC_LD64_LO12 threadWakeEvent
000000000000044c R_AARCH64_TLSDESC_ADD_LO12 threadWakeEvent
0000000000000450 R_AARCH64_TLSDESC_CALL   threadWakeEvent
0000000000000458 R_AARCH64_ADR_PREL_PG_HI21 _ZNSt3__110unique_ptrIN4WAVM8Platform5EventENS_14default_deleteIS3_EEED2Ev
000000000000045c R_AARCH64_ADR_PREL_PG_HI21 __dso_handle
0000000000000460 R_AARCH64_ADD_ABS_LO12_NC _ZNSt3__110unique_ptrIN4WAVM8Platform5EventENS_14default_deleteIS3_EEED2Ev
0000000000000464 R_AARCH64_ADD_ABS_LO12_NC __dso_handle
000000000000046c R_AARCH64_CALL26         __cxa_thread_atexit
0000000000000470 R_AARCH64_TLSDESC_ADR_PAGE21 threadWakeEvent
0000000000000474 R_AARCH64_TLSDESC_LD64_LO12 threadWakeEvent
0000000000000478 R_AARCH64_TLSDESC_ADD_LO12 threadWakeEvent
000000000000047c R_AARCH64_TLSDESC_CALL   threadWakeEvent
000000000000048c R_AARCH64_TLSDESC_ADR_PAGE21 __tls_guard
0000000000000490 R_AARCH64_TLSDESC_LD64_LO12 __tls_guard
0000000000000494 R_AARCH64_TLSDESC_ADD_LO12 __tls_guard
0000000000000498 R_AARCH64_TLSDESC_CALL   __tls_guard
00000000000004a4 R_AARCH64_TLSDESC_ADR_PAGE21 threadWakeEvent
00000000000004a8 R_AARCH64_TLSDESC_LD64_LO12 threadWakeEvent
00000000000004ac R_AARCH64_TLSDESC_ADD_LO12 threadWakeEvent
00000000000004b0 R_AARCH64_TLSDESC_CALL   threadWakeEvent
00000000000004b8 R_AARCH64_ADR_PREL_PG_HI21 _ZNSt3__110unique_ptrIN4WAVM8Platform5EventENS_14default_deleteIS3_EEED2Ev
00000000000004bc R_AARCH64_ADR_PREL_PG_HI21 __dso_handle
00000000000004c0 R_AARCH64_ADD_ABS_LO12_NC _ZNSt3__110unique_ptrIN4WAVM8Platform5EventENS_14default_deleteIS3_EEED2Ev
00000000000004c4 R_AARCH64_ADD_ABS_LO12_NC __dso_handle
00000000000004cc R_AARCH64_CALL26         __cxa_thread_atexit
00000000000004d0 R_AARCH64_TLSDESC_ADR_PAGE21 threadWakeEvent
00000000000004d4 R_AARCH64_TLSDESC_LD64_LO12 threadWakeEvent
00000000000004d8 R_AARCH64_TLSDESC_ADD_LO12 threadWakeEvent
00000000000004dc R_AARCH64_TLSDESC_CALL   threadWakeEvent
0000000000000540 R_AARCH64_CALL26         _Znwm
0000000000000568 R_AARCH64_CALL26         memcpy
000000000000057c R_AARCH64_CALL26         _ZdlPv
0000000000000588 R_AARCH64_CALL26         _ZN4WAVM8Platform5Mutex6unlockEv
000000000000058c R_AARCH64_TLSDESC_ADR_PAGE21 __tls_guard
0000000000000590 R_AARCH64_TLSDESC_LD64_LO12 __tls_guard
0000000000000594 R_AARCH64_TLSDESC_ADD_LO12 __tls_guard
0000000000000598 R_AARCH64_TLSDESC_CALL   __tls_guard
00000000000005a4 R_AARCH64_TLSDESC_ADR_PAGE21 threadWakeEvent
00000000000005a8 R_AARCH64_TLSDESC_LD64_LO12 threadWakeEvent
00000000000005ac R_AARCH64_TLSDESC_ADD_LO12 threadWakeEvent
00000000000005b0 R_AARCH64_TLSDESC_CALL   threadWakeEvent
00000000000005c8 R_AARCH64_CALL26         _ZN4WAVM8Platform5Event4waitENS_4TimeE
00000000000005e0 R_AARCH64_CALL26         _ZN4WAVM8Platform5Mutex4lockEv
00000000000005e8 R_AARCH64_TLSDESC_ADR_PAGE21 __tls_guard
00000000000005ec R_AARCH64_TLSDESC_LD64_LO12 __tls_guard
00000000000005f0 R_AARCH64_TLSDESC_ADD_LO12 __tls_guard
00000000000005f4 R_AARCH64_TLSDESC_CALL   __tls_guard
0000000000000600 R_AARCH64_TLSDESC_ADR_PAGE21 threadWakeEvent
0000000000000604 R_AARCH64_TLSDESC_LD64_LO12 threadWakeEvent
0000000000000608 R_AARCH64_TLSDESC_ADD_LO12 threadWakeEvent
000000000000060c R_AARCH64_TLSDESC_CALL   threadWakeEvent
0000000000000658 R_AARCH64_CALL26         memmove
0000000000000690 R_AARCH64_TLSDESC_ADR_PAGE21 __tls_guard
0000000000000694 R_AARCH64_TLSDESC_LD64_LO12 __tls_guard
0000000000000698 R_AARCH64_TLSDESC_ADD_LO12 __tls_guard
000000000000069c R_AARCH64_TLSDESC_CALL   __tls_guard
00000000000006b0 R_AARCH64_CALL26         _ZN4WAVM8Platform12getClockTimeENS0_5ClockE
00000000000006bc R_AARCH64_CALL26         _ZN4WAVM8Platform5Event4waitENS_4TimeE
00000000000006d8 R_AARCH64_CALL26         _ZN4WAVM8Platform5Mutex6unlockEv
000000000000070c R_AARCH64_ADR_PREL_PG_HI21 .data.rel.ro
0000000000000710 R_AARCH64_ADD_ABS_LO12_NC .data.rel.ro
0000000000000714 R_AARCH64_CALL26         _ZN4WAVM8Platform22handleAssertionFailureERKNS0_14AssertMetadataE
0000000000000720 R_AARCH64_TLSDESC_ADR_PAGE21 __tls_guard
0000000000000724 R_AARCH64_TLSDESC_LD64_LO12 __tls_guard
0000000000000728 R_AARCH64_TLSDESC_ADD_LO12 __tls_guard
000000000000072c R_AARCH64_TLSDESC_CALL   __tls_guard
0000000000000738 R_AARCH64_TLSDESC_ADR_PAGE21 threadWakeEvent
000000000000073c R_AARCH64_TLSDESC_LD64_LO12 threadWakeEvent
0000000000000740 R_AARCH64_TLSDESC_ADD_LO12 threadWakeEvent
0000000000000744 R_AARCH64_TLSDESC_CALL   threadWakeEvent
000000000000074c R_AARCH64_ADR_PREL_PG_HI21 _ZNSt3__110unique_ptrIN4WAVM8Platform5EventENS_14default_deleteIS3_EEED2Ev
0000000000000750 R_AARCH64_ADR_PREL_PG_HI21 __dso_handle
0000000000000754 R_AARCH64_ADD_ABS_LO12_NC _ZNSt3__110unique_ptrIN4WAVM8Platform5EventENS_14default_deleteIS3_EEED2Ev
0000000000000758 R_AARCH64_ADD_ABS_LO12_NC __dso_handle
0000000000000760 R_AARCH64_CALL26         __cxa_thread_atexit
0000000000000768 R_AARCH64_TLSDESC_ADR_PAGE21 __tls_guard
000000000000076c R_AARCH64_TLSDESC_LD64_LO12 __tls_guard
0000000000000770 R_AARCH64_TLSDESC_ADD_LO12 __tls_guard
0000000000000774 R_AARCH64_TLSDESC_CALL   __tls_guard
0000000000000780 R_AARCH64_TLSDESC_ADR_PAGE21 threadWakeEvent
0000000000000784 R_AARCH64_TLSDESC_LD64_LO12 threadWakeEvent
0000000000000788 R_AARCH64_TLSDESC_ADD_LO12 threadWakeEvent
000000000000078c R_AARCH64_TLSDESC_CALL   threadWakeEvent
0000000000000794 R_AARCH64_ADR_PREL_PG_HI21 _ZNSt3__110unique_ptrIN4WAVM8Platform5EventENS_14default_deleteIS3_EEED2Ev
0000000000000798 R_AARCH64_ADR_PREL_PG_HI21 __dso_handle
000000000000079c R_AARCH64_ADD_ABS_LO12_NC _ZNSt3__110unique_ptrIN4WAVM8Platform5EventENS_14default_deleteIS3_EEED2Ev
00000000000007a0 R_AARCH64_ADD_ABS_LO12_NC __dso_handle
00000000000007a8 R_AARCH64_CALL26         __cxa_thread_atexit
00000000000007ac R_AARCH64_TLSDESC_ADR_PAGE21 threadWakeEvent
00000000000007b0 R_AARCH64_TLSDESC_LD64_LO12 threadWakeEvent
00000000000007b4 R_AARCH64_TLSDESC_ADD_LO12 threadWakeEvent
00000000000007b8 R_AARCH64_TLSDESC_CALL   threadWakeEvent
00000000000007cc R_AARCH64_TLSDESC_ADR_PAGE21 __tls_guard
00000000000007d0 R_AARCH64_TLSDESC_LD64_LO12 __tls_guard
00000000000007d4 R_AARCH64_TLSDESC_ADD_LO12 __tls_guard
00000000000007d8 R_AARCH64_TLSDESC_CALL   __tls_guard
00000000000007e4 R_AARCH64_TLSDESC_ADR_PAGE21 threadWakeEvent
00000000000007e8 R_AARCH64_TLSDESC_LD64_LO12 threadWakeEvent
00000000000007ec R_AARCH64_TLSDESC_ADD_LO12 threadWakeEvent
00000000000007f0 R_AARCH64_TLSDESC_CALL   threadWakeEvent
00000000000007f8 R_AARCH64_ADR_PREL_PG_HI21 _ZNSt3__110unique_ptrIN4WAVM8Platform5EventENS_14default_deleteIS3_EEED2Ev
00000000000007fc R_AARCH64_ADR_PREL_PG_HI21 __dso_handle
0000000000000800 R_AARCH64_ADD_ABS_LO12_NC _ZNSt3__110unique_ptrIN4WAVM8Platform5EventENS_14default_deleteIS3_EEED2Ev
0000000000000804 R_AARCH64_ADD_ABS_LO12_NC __dso_handle
000000000000080c R_AARCH64_CALL26         __cxa_thread_atexit
0000000000000810 R_AARCH64_TLSDESC_ADR_PAGE21 threadWakeEvent
0000000000000814 R_AARCH64_TLSDESC_LD64_LO12 threadWakeEvent
0000000000000818 R_AARCH64_TLSDESC_ADD_LO12 threadWakeEvent
000000000000081c R_AARCH64_TLSDESC_CALL   threadWakeEvent
0000000000000830 R_AARCH64_TLSDESC_ADR_PAGE21 __tls_guard
0000000000000834 R_AARCH64_TLSDESC_LD64_LO12 __tls_guard
0000000000000838 R_AARCH64_TLSDESC_ADD_LO12 __tls_guard
000000000000083c R_AARCH64_TLSDESC_CALL   __tls_guard
0000000000000848 R_AARCH64_TLSDESC_ADR_PAGE21 threadWakeEvent
000000000000084c R_AARCH64_TLSDESC_LD64_LO12 threadWakeEvent
0000000000000850 R_AARCH64_TLSDESC_ADD_LO12 threadWakeEvent
0000000000000854 R_AARCH64_TLSDESC_CALL   threadWakeEvent
000000000000085c R_AARCH64_ADR_PREL_PG_HI21 _ZNSt3__110unique_ptrIN4WAVM8Platform5EventENS_14default_deleteIS3_EEED2Ev
0000000000000860 R_AARCH64_ADR_PREL_PG_HI21 __dso_handle
0000000000000864 R_AARCH64_ADD_ABS_LO12_NC _ZNSt3__110unique_ptrIN4WAVM8Platform5EventENS_14default_deleteIS3_EEED2Ev
0000000000000868 R_AARCH64_ADD_ABS_LO12_NC __dso_handle
0000000000000874 R_AARCH64_CALL26         __cxa_thread_atexit
0000000000000880 R_AARCH64_ADR_GOT_PAGE   _ZN4WAVM7Runtime14ExceptionTypes20waitOnUnsharedMemoryE
0000000000000884 R_AARCH64_LD64_GOT_LO12_NC _ZN4WAVM7Runtime14ExceptionTypes20waitOnUnsharedMemoryE
00000000000008a0 R_AARCH64_CALL26         _ZNSt3__16vectorIN4WAVM2IR13UntaggedValueENS_9allocatorIS3_EEEC2ESt16initializer_listIS3_E
00000000000008ac R_AARCH64_CALL26         _ZN4WAVM7Runtime14throwExceptionEPNS0_13ExceptionTypeERKNSt3__16vectorINS_2IR13UntaggedValueENS3_9allocatorIS6_EEEE
00000000000008b0 R_AARCH64_CALL26         _ZNKSt3__120__vector_base_commonILb1EE20__throw_length_errorEv
00000000000008b4 R_AARCH64_ADR_PREL_PG_HI21 .rodata.str1.1+0x54
00000000000008b8 R_AARCH64_ADD_ABS_LO12_NC .rodata.str1.1+0x54
00000000000008bc R_AARCH64_CALL26         _ZNSt3__120__throw_length_errorEPKc
00000000000008c0 R_AARCH64_CALL26         __clang_call_terminate
00000000000008cc R_AARCH64_CALL26         _ZdlPv
0000000000000930 R_AARCH64_CALL26         _ZdlPv
0000000000000938 R_AARCH64_CALL26         _Unwind_Resume
0000000000000944 R_AARCH64_CALL26         _ZN4WAVM8Platform5Mutex4LockD2Ev
000000000000094c R_AARCH64_CALL26         _Unwind_Resume
0000000000000980 R_AARCH64_CALL26         _ZN4WAVM7Runtime24getMemoryFromRuntimeDataEPNS0_18ContextRuntimeDataEm
0000000000000994 R_AARCH64_CALL26         _ZN4WAVM7Runtime29getValidatedMemoryOffsetRangeEPNS0_6MemoryEmm
00000000000009a8 R_AARCH64_CALL26         _ZN4WAVM8Platform5Mutex4lockEv
00000000000009ac R_AARCH64_ADR_PREL_PG_HI21 .data.rel.ro+0xa0
00000000000009b0 R_AARCH64_ADD_ABS_LO12_NC .data.rel.ro+0xa0
00000000000009cc R_AARCH64_CALL26         _ZN4WAVM7Runtime25unwindSignalsAsExceptionsERKNSt3__18functionIFvvEEE
0000000000000a08 R_AARCH64_TLSDESC_ADR_PAGE21 __tls_guard
0000000000000a0c R_AARCH64_TLSDESC_LD64_LO12 __tls_guard
0000000000000a10 R_AARCH64_TLSDESC_ADD_LO12 __tls_guard
0000000000000a14 R_AARCH64_TLSDESC_CALL   __tls_guard
0000000000000a20 R_AARCH64_TLSDESC_ADR_PAGE21 threadWakeEvent
0000000000000a24 R_AARCH64_TLSDESC_LD64_LO12 threadWakeEvent
0000000000000a28 R_AARCH64_TLSDESC_ADD_LO12 threadWakeEvent
0000000000000a2c R_AARCH64_TLSDESC_CALL   threadWakeEvent
0000000000000a3c R_AARCH64_CALL26         _Znwm
0000000000000a44 R_AARCH64_CALL26         _ZN4WAVM8Platform5EventC1Ev
0000000000000a48 R_AARCH64_TLSDESC_ADR_PAGE21 __tls_guard
0000000000000a4c R_AARCH64_TLSDESC_LD64_LO12 __tls_guard
0000000000000a50 R_AARCH64_TLSDESC_ADD_LO12 __tls_guard
0000000000000a54 R_AARCH64_TLSDESC_CALL   __tls_guard
0000000000000a60 R_AARCH64_TLSDESC_ADR_PAGE21 threadWakeEvent
0000000000000a64 R_AARCH64_TLSDESC_LD64_LO12 threadWakeEvent
0000000000000a68 R_AARCH64_TLSDESC_ADD_LO12 threadWakeEvent
0000000000000a6c R_AARCH64_TLSDESC_CALL   threadWakeEvent
0000000000000a80 R_AARCH64_CALL26         _ZN4WAVM8Platform5EventD1Ev
0000000000000a88 R_AARCH64_CALL26         _ZdlPv
0000000000000a8c R_AARCH64_TLSDESC_ADR_PAGE21 __tls_guard
0000000000000a90 R_AARCH64_TLSDESC_LD64_LO12 __tls_guard
0000000000000a94 R_AARCH64_TLSDESC_ADD_LO12 __tls_guard
0000000000000a98 R_AARCH64_TLSDESC_CALL   __tls_guard
0000000000000aa4 R_AARCH64_TLSDESC_ADR_PAGE21 threadWakeEvent
0000000000000aa8 R_AARCH64_TLSDESC_LD64_LO12 threadWakeEvent
0000000000000aac R_AARCH64_TLSDESC_ADD_LO12 threadWakeEvent
0000000000000ab0 R_AARCH64_TLSDESC_CALL   threadWakeEvent
0000000000000adc R_AARCH64_CALL26         _ZN4WAVM8Platform5Mutex6unlockEv
0000000000000af8 R_AARCH64_TLSDESC_ADR_PAGE21 __tls_guard
0000000000000afc R_AARCH64_TLSDESC_LD64_LO12 __tls_guard
0000000000000b00 R_AARCH64_TLSDESC_ADD_LO12 __tls_guard
0000000000000b04 R_AARCH64_TLSDESC_CALL   __tls_guard
0000000000000b10 R_AARCH64_TLSDESC_ADR_PAGE21 threadWakeEvent
0000000000000b14 R_AARCH64_TLSDESC_LD64_LO12 threadWakeEvent
0000000000000b18 R_AARCH64_TLSDESC_ADD_LO12 threadWakeEvent
0000000000000b1c R_AARCH64_TLSDESC_CALL   threadWakeEvent
0000000000000b24 R_AARCH64_ADR_PREL_PG_HI21 _ZNSt3__110unique_ptrIN4WAVM8Platform5EventENS_14default_deleteIS3_EEED2Ev
0000000000000b28 R_AARCH64_ADR_PREL_PG_HI21 __dso_handle
0000000000000b2c R_AARCH64_ADD_ABS_LO12_NC _ZNSt3__110unique_ptrIN4WAVM8Platform5EventENS_14default_deleteIS3_EEED2Ev
0000000000000b30 R_AARCH64_ADD_ABS_LO12_NC __dso_handle
0000000000000b38 R_AARCH64_CALL26         __cxa_thread_atexit
0000000000000b3c R_AARCH64_TLSDESC_ADR_PAGE21 threadWakeEvent
0000000000000b40 R_AARCH64_TLSDESC_LD64_LO12 threadWakeEvent
0000000000000b44 R_AARCH64_TLSDESC_ADD_LO12 threadWakeEvent
0000000000000b48 R_AARCH64_TLSDESC_CALL   threadWakeEvent
0000000000000b58 R_AARCH64_TLSDESC_ADR_PAGE21 __tls_guard
0000000000000b5c R_AARCH64_TLSDESC_LD64_LO12 __tls_guard
0000000000000b60 R_AARCH64_TLSDESC_ADD_LO12 __tls_guard
0000000000000b64 R_AARCH64_TLSDESC_CALL   __tls_guard
0000000000000b70 R_AARCH64_TLSDESC_ADR_PAGE21 threadWakeEvent
0000000000000b74 R_AARCH64_TLSDESC_LD64_LO12 threadWakeEvent
0000000000000b78 R_AARCH64_TLSDESC_ADD_LO12 threadWakeEvent
0000000000000b7c R_AARCH64_TLSDESC_CALL   threadWakeEvent
0000000000000b84 R_AARCH64_ADR_PREL_PG_HI21 _ZNSt3__110unique_ptrIN4WAVM8Platform5EventENS_14default_deleteIS3_EEED2Ev
0000000000000b88 R_AARCH64_ADR_PREL_PG_HI21 __dso_handle
0000000000000b8c R_AARCH64_ADD_ABS_LO12_NC _ZNSt3__110unique_ptrIN4WAVM8Platform5EventENS_14default_deleteIS3_EEED2Ev
0000000000000b90 R_AARCH64_ADD_ABS_LO12_NC __dso_handle
0000000000000b98 R_AARCH64_CALL26         __cxa_thread_atexit
0000000000000b9c R_AARCH64_TLSDESC_ADR_PAGE21 threadWakeEvent
0000000000000ba0 R_AARCH64_TLSDESC_LD64_LO12 threadWakeEvent
0000000000000ba4 R_AARCH64_TLSDESC_ADD_LO12 threadWakeEvent
0000000000000ba8 R_AARCH64_TLSDESC_CALL   threadWakeEvent
0000000000000c0c R_AARCH64_CALL26         _Znwm
0000000000000c34 R_AARCH64_CALL26         memcpy
0000000000000c48 R_AARCH64_CALL26         _ZdlPv
0000000000000c54 R_AARCH64_CALL26         _ZN4WAVM8Platform5Mutex6unlockEv
0000000000000c58 R_AARCH64_TLSDESC_ADR_PAGE21 __tls_guard
0000000000000c5c R_AARCH64_TLSDESC_LD64_LO12 __tls_guard
0000000000000c60 R_AARCH64_TLSDESC_ADD_LO12 __tls_guard
0000000000000c64 R_AARCH64_TLSDESC_CALL   __tls_guard
0000000000000c70 R_AARCH64_TLSDESC_ADR_PAGE21 threadWakeEvent
0000000000000c74 R_AARCH64_TLSDESC_LD64_LO12 threadWakeEvent
0000000000000c78 R_AARCH64_TLSDESC_ADD_LO12 threadWakeEvent
0000000000000c7c R_AARCH64_TLSDESC_CALL   threadWakeEvent
0000000000000c94 R_AARCH64_CALL26         _ZN4WAVM8Platform5Event4waitENS_4TimeE
0000000000000cac R_AARCH64_CALL26         _ZN4WAVM8Platform5Mutex4lockEv
0000000000000cb4 R_AARCH64_TLSDESC_ADR_PAGE21 __tls_guard
0000000000000cb8 R_AARCH64_TLSDESC_LD64_LO12 __tls_guard
0000000000000cbc R_AARCH64_TLSDESC_ADD_LO12 __tls_guard
0000000000000cc0 R_AARCH64_TLSDESC_CALL   __tls_guard
0000000000000ccc R_AARCH64_TLSDESC_ADR_PAGE21 threadWakeEvent
0000000000000cd0 R_AARCH64_TLSDESC_LD64_LO12 threadWakeEvent
0000000000000cd4 R_AARCH64_TLSDESC_ADD_LO12 threadWakeEvent
0000000000000cd8 R_AARCH64_TLSDESC_CALL   threadWakeEvent
0000000000000d24 R_AARCH64_CALL26         memmove
0000000000000d5c R_AARCH64_TLSDESC_ADR_PAGE21 __tls_guard
0000000000000d60 R_AARCH64_TLSDESC_LD64_LO12 __tls_guard
0000000000000d64 R_AARCH64_TLSDESC_ADD_LO12 __tls_guard
0000000000000d68 R_AARCH64_TLSDESC_CALL   __tls_guard
0000000000000d7c R_AARCH64_CALL26         _ZN4WAVM8Platform12getClockTimeENS0_5ClockE
0000000000000d88 R_AARCH64_CALL26         _ZN4WAVM8Platform5Event4waitENS_4TimeE
0000000000000da4 R_AARCH64_CALL26         _ZN4WAVM8Platform5Mutex6unlockEv
0000000000000dd8 R_AARCH64_ADR_PREL_PG_HI21 .data.rel.ro+0x70
0000000000000ddc R_AARCH64_ADD_ABS_LO12_NC .data.rel.ro+0x70
0000000000000de0 R_AARCH64_CALL26         _ZN4WAVM8Platform22handleAssertionFailureERKNS0_14AssertMetadataE
0000000000000dec R_AARCH64_TLSDESC_ADR_PAGE21 __tls_guard
0000000000000df0 R_AARCH64_TLSDESC_LD64_LO12 __tls_guard
0000000000000df4 R_AARCH64_TLSDESC_ADD_LO12 __tls_guard
0000000000000df8 R_AARCH64_TLSDESC_CALL   __tls_guard
0000000000000e04 R_AARCH64_TLSDESC_ADR_PAGE21 threadWakeEvent
0000000000000e08 R_AARCH64_TLSDESC_LD64_LO12 threadWakeEvent
0000000000000e0c R_AARCH64_TLSDESC_ADD_LO12 threadWakeEvent
0000000000000e10 R_AARCH64_TLSDESC_CALL   threadWakeEvent
0000000000000e18 R_AARCH64_ADR_PREL_PG_HI21 _ZNSt3__110unique_ptrIN4WAVM8Platform5EventENS_14default_deleteIS3_EEED2Ev
0000000000000e1c R_AARCH64_ADR_PREL_PG_HI21 __dso_handle
0000000000000e20 R_AARCH64_ADD_ABS_LO12_NC _ZNSt3__110unique_ptrIN4WAVM8Platform5EventENS_14default_deleteIS3_EEED2Ev
0000000000000e24 R_AARCH64_ADD_ABS_LO12_NC __dso_handle
0000000000000e2c R_AARCH64_CALL26         __cxa_thread_atexit
0000000000000e34 R_AARCH64_TLSDESC_ADR_PAGE21 __tls_guard
0000000000000e38 R_AARCH64_TLSDESC_LD64_LO12 __tls_guard
0000000000000e3c R_AARCH64_TLSDESC_ADD_LO12 __tls_guard
0000000000000e40 R_AARCH64_TLSDESC_CALL   __tls_guard
0000000000000e4c R_AARCH64_TLSDESC_ADR_PAGE21 threadWakeEvent
0000000000000e50 R_AARCH64_TLSDESC_LD64_LO12 threadWakeEvent
0000000000000e54 R_AARCH64_TLSDESC_ADD_LO12 threadWakeEvent
0000000000000e58 R_AARCH64_TLSDESC_CALL   threadWakeEvent
0000000000000e60 R_AARCH64_ADR_PREL_PG_HI21 _ZNSt3__110unique_ptrIN4WAVM8Platform5EventENS_14default_deleteIS3_EEED2Ev
0000000000000e64 R_AARCH64_ADR_PREL_PG_HI21 __dso_handle
0000000000000e68 R_AARCH64_ADD_ABS_LO12_NC _ZNSt3__110unique_ptrIN4WAVM8Platform5EventENS_14default_deleteIS3_EEED2Ev
0000000000000e6c R_AARCH64_ADD_ABS_LO12_NC __dso_handle
0000000000000e74 R_AARCH64_CALL26         __cxa_thread_atexit
0000000000000e78 R_AARCH64_TLSDESC_ADR_PAGE21 threadWakeEvent
0000000000000e7c R_AARCH64_TLSDESC_LD64_LO12 threadWakeEvent
0000000000000e80 R_AARCH64_TLSDESC_ADD_LO12 threadWakeEvent
0000000000000e84 R_AARCH64_TLSDESC_CALL   threadWakeEvent
0000000000000e98 R_AARCH64_TLSDESC_ADR_PAGE21 __tls_guard
0000000000000e9c R_AARCH64_TLSDESC_LD64_LO12 __tls_guard
0000000000000ea0 R_AARCH64_TLSDESC_ADD_LO12 __tls_guard
0000000000000ea4 R_AARCH64_TLSDESC_CALL   __tls_guard
0000000000000eb0 R_AARCH64_TLSDESC_ADR_PAGE21 threadWakeEvent
0000000000000eb4 R_AARCH64_TLSDESC_LD64_LO12 threadWakeEvent
0000000000000eb8 R_AARCH64_TLSDESC_ADD_LO12 threadWakeEvent
0000000000000ebc R_AARCH64_TLSDESC_CALL   threadWakeEvent
0000000000000ec4 R_AARCH64_ADR_PREL_PG_HI21 _ZNSt3__110unique_ptrIN4WAVM8Platform5EventENS_14default_deleteIS3_EEED2Ev
0000000000000ec8 R_AARCH64_ADR_PREL_PG_HI21 __dso_handle
0000000000000ecc R_AARCH64_ADD_ABS_LO12_NC _ZNSt3__110unique_ptrIN4WAVM8Platform5EventENS_14default_deleteIS3_EEED2Ev
0000000000000ed0 R_AARCH64_ADD_ABS_LO12_NC __dso_handle
0000000000000ed8 R_AARCH64_CALL26         __cxa_thread_atexit
0000000000000edc R_AARCH64_TLSDESC_ADR_PAGE21 threadWakeEvent
0000000000000ee0 R_AARCH64_TLSDESC_LD64_LO12 threadWakeEvent
0000000000000ee4 R_AARCH64_TLSDESC_ADD_LO12 threadWakeEvent
0000000000000ee8 R_AARCH64_TLSDESC_CALL   threadWakeEvent
0000000000000efc R_AARCH64_TLSDESC_ADR_PAGE21 __tls_guard
0000000000000f00 R_AARCH64_TLSDESC_LD64_LO12 __tls_guard
0000000000000f04 R_AARCH64_TLSDESC_ADD_LO12 __tls_guard
0000000000000f08 R_AARCH64_TLSDESC_CALL   __tls_guard
0000000000000f14 R_AARCH64_TLSDESC_ADR_PAGE21 threadWakeEvent
0000000000000f18 R_AARCH64_TLSDESC_LD64_LO12 threadWakeEvent
0000000000000f1c R_AARCH64_TLSDESC_ADD_LO12 threadWakeEvent
0000000000000f20 R_AARCH64_TLSDESC_CALL   threadWakeEvent
0000000000000f28 R_AARCH64_ADR_PREL_PG_HI21 _ZNSt3__110unique_ptrIN4WAVM8Platform5EventENS_14default_deleteIS3_EEED2Ev
0000000000000f2c R_AARCH64_ADR_PREL_PG_HI21 __dso_handle
0000000000000f30 R_AARCH64_ADD_ABS_LO12_NC _ZNSt3__110unique_ptrIN4WAVM8Platform5EventENS_14default_deleteIS3_EEED2Ev
0000000000000f34 R_AARCH64_ADD_ABS_LO12_NC __dso_handle
0000000000000f40 R_AARCH64_CALL26         __cxa_thread_atexit
0000000000000f4c R_AARCH64_ADR_GOT_PAGE   _ZN4WAVM7Runtime14ExceptionTypes20waitOnUnsharedMemoryE
0000000000000f50 R_AARCH64_LD64_GOT_LO12_NC _ZN4WAVM7Runtime14ExceptionTypes20waitOnUnsharedMemoryE
0000000000000f6c R_AARCH64_CALL26         _ZNSt3__16vectorIN4WAVM2IR13UntaggedValueENS_9allocatorIS3_EEEC2ESt16initializer_listIS3_E
0000000000000f78 R_AARCH64_CALL26         _ZN4WAVM7Runtime14throwExceptionEPNS0_13ExceptionTypeERKNSt3__16vectorINS_2IR13UntaggedValueENS3_9allocatorIS6_EEEE
0000000000000f7c R_AARCH64_CALL26         _ZNKSt3__120__vector_base_commonILb1EE20__throw_length_errorEv
0000000000000f80 R_AARCH64_ADR_PREL_PG_HI21 .rodata.str1.1+0x54
0000000000000f84 R_AARCH64_ADD_ABS_LO12_NC .rodata.str1.1+0x54
0000000000000f88 R_AARCH64_CALL26         _ZNSt3__120__throw_length_errorEPKc
0000000000000f8c R_AARCH64_CALL26         __clang_call_terminate
0000000000000f98 R_AARCH64_CALL26         _ZdlPv
0000000000000ffc R_AARCH64_CALL26         _ZdlPv
0000000000001004 R_AARCH64_CALL26         _Unwind_Resume
0000000000001010 R_AARCH64_CALL26         _ZN4WAVM8Platform5Mutex4LockD2Ev
0000000000001018 R_AARCH64_CALL26         _Unwind_Resume
000000000000102c R_AARCH64_ADR_PREL_PG_HI21 .bss+0x10
0000000000001030 R_AARCH64_ADD_ABS_LO12_NC .bss+0x10
0000000000001044 R_AARCH64_CALL26         _ZN4WAVM8Platform5Mutex4lockEv
00000000000010bc R_AARCH64_ADR_PREL_PG_HI21 .bss+0x20
00000000000010c8 R_AARCH64_LDST64_ABS_LO12_NC .bss+0x20
0000000000001168 R_AARCH64_CALL26         _Znwm
0000000000001170 R_AARCH64_CALL26         _ZN4WAVM8Platform5MutexC1Ev
0000000000001184 R_AARCH64_ADR_PREL_PG_HI21 .bss+0x10
0000000000001188 R_AARCH64_ADD_ABS_LO12_NC .bss+0x10
0000000000001194 R_AARCH64_CALL26         _ZN4WAVM7HashMapImP8WaitListNS_17DefaultHashPolicyImEEE3setIJRS2_EEES7_RKmDpOT_
000000000000119c R_AARCH64_ADR_PREL_PG_HI21 .bss+0x88
00000000000011a0 R_AARCH64_ADD_ABS_LO12_NC .bss+0x88
00000000000011a4 R_AARCH64_CALL26         _ZN4WAVM8Platform5Mutex6unlockEv
00000000000011bc R_AARCH64_CALL26         __clang_call_terminate
00000000000011c8 R_AARCH64_CALL26         _ZdlPv
00000000000011d8 R_AARCH64_CALL26         _ZN4WAVM8Platform5Mutex4LockD2Ev
00000000000011e0 R_AARCH64_CALL26         _Unwind_Resume
000000000000120c R_AARCH64_ADR_PREL_PG_HI21 .bss+0x88
0000000000001210 R_AARCH64_ADD_ABS_LO12_NC .bss+0x88
000000000000121c R_AARCH64_CALL26         _ZN4WAVM8Platform5Mutex4lockEv
0000000000001234 R_AARCH64_CALL26         _ZdlPv
000000000000123c R_AARCH64_CALL26         _ZN4WAVM8Platform5MutexD1Ev
0000000000001244 R_AARCH64_CALL26         _ZdlPv
00000000000012d8 R_AARCH64_ADR_PREL_PG_HI21 .bss+0x10
00000000000012dc R_AARCH64_ADD_ABS_LO12_NC .bss+0x10
00000000000012e4 R_AARCH64_CALL26         _ZN4WAVM9HashTableImNS_11HashMapPairImP8WaitListEENS_7HashMapImS3_NS_17DefaultHashPolicyImEEE15HashTablePolicyENS_27DefaultHashTableAllocPolicyEE6removeEmRKm
00000000000012f0 R_AARCH64_CALL26         _ZN4WAVM8Platform5Mutex6unlockEv
000000000000130c R_AARCH64_CALL26         _ZN4WAVM8Platform5Mutex4LockD2Ev
0000000000001314 R_AARCH64_CALL26         _Unwind_Resume
0000000000001318 R_AARCH64_CALL26         __clang_call_terminate
000000000000131c R_AARCH64_JUMP26         _ZdlPv
0000000000001334 R_AARCH64_CALL26         _Znwm
0000000000001340 R_AARCH64_ADR_PREL_PG_HI21 .data.rel.ro+0x30
0000000000001344 R_AARCH64_ADD_ABS_LO12_NC .data.rel.ro+0x30
0000000000001358 R_AARCH64_ADR_PREL_PG_HI21 .data.rel.ro+0x30
000000000000135c R_AARCH64_ADD_ABS_LO12_NC .data.rel.ro+0x30
0000000000001374 R_AARCH64_JUMP26         _ZdlPv
0000000000001388 R_AARCH64_JUMP26         _ZdlPv
00000000000013a0 R_AARCH64_CALL26         _Znwm
00000000000013ac R_AARCH64_ADR_PREL_PG_HI21 .data.rel.ro+0xa0
00000000000013b0 R_AARCH64_ADD_ABS_LO12_NC .data.rel.ro+0xa0
00000000000013c4 R_AARCH64_ADR_PREL_PG_HI21 .data.rel.ro+0xa0
00000000000013c8 R_AARCH64_ADD_ABS_LO12_NC .data.rel.ro+0xa0
00000000000013e0 R_AARCH64_JUMP26         _ZdlPv
000000000000140c R_AARCH64_ADR_PREL_PG_HI21 .bss+0x8
0000000000001410 R_AARCH64_ADD_ABS_LO12_NC .bss+0x8
000000000000141c R_AARCH64_CALL26         _ZN4WAVM8Platform5MutexC1Ev
0000000000001420 R_AARCH64_ADR_GOT_PAGE   _ZN4WAVM8Platform5MutexD1Ev
0000000000001424 R_AARCH64_LD64_GOT_LO12_NC _ZN4WAVM8Platform5MutexD1Ev
0000000000001428 R_AARCH64_ADR_PREL_PG_HI21 __dso_handle
000000000000142c R_AARCH64_ADD_ABS_LO12_NC __dso_handle
0000000000001438 R_AARCH64_CALL26         __cxa_atexit
000000000000144c R_AARCH64_ADR_GOT_PAGE   _ZN4WAVM7HashMapImP8WaitListNS_17DefaultHashPolicyImEEED2Ev
0000000000001450 R_AARCH64_LD64_GOT_LO12_NC _ZN4WAVM7HashMapImP8WaitListNS_17DefaultHashPolicyImEEED2Ev
0000000000001458 R_AARCH64_CALL26         __cxa_atexit
0000000000001460 R_AARCH64_ADR_PREL_PG_HI21 .bss
0000000000001464 R_AARCH64_ADD_ABS_LO12_NC .bss
0000000000001474 R_AARCH64_CALL26         _ZN4WAVM2IR9TypeTuple13getUniqueImplEmPKNS0_9ValueTypeE
0000000000001498 R_AARCH64_CALL26         _ZN4WAVM2IR9TypeTupleC1ERKSt16initializer_listINS0_9ValueTypeEE
00000000000014a8 R_AARCH64_CALL26         _ZN4WAVM2IR12FunctionType13getUniqueImplENS0_9TypeTupleES2_NS0_17CallingConventionE
00000000000014ac R_AARCH64_ADR_PREL_PG_HI21 .rodata.str1.1
00000000000014b0 R_AARCH64_ADR_PREL_PG_HI21 .text+0x7c
00000000000014bc R_AARCH64_ADD_ABS_LO12_NC .rodata.str1.1
00000000000014c0 R_AARCH64_ADD_ABS_LO12_NC .text+0x7c
00000000000014c8 R_AARCH64_CALL26         _ZN4WAVM10Intrinsics8FunctionC1EPNS0_6ModuleEPKcPvNS_2IR12FunctionTypeE
00000000000014e0 R_AARCH64_CALL26         _ZN4WAVM2IR9TypeTupleC1ENS0_9ValueTypeE
0000000000001500 R_AARCH64_CALL26         _ZN4WAVM2IR9TypeTupleC1ERKSt16initializer_listINS0_9ValueTypeEE
0000000000001510 R_AARCH64_CALL26         _ZN4WAVM2IR12FunctionType13getUniqueImplENS0_9TypeTupleES2_NS0_17CallingConventionE
0000000000001514 R_AARCH64_ADR_PREL_PG_HI21 .rodata.str1.1+0x15
0000000000001518 R_AARCH64_ADR_PREL_PG_HI21 .text+0xe0
0000000000001524 R_AARCH64_ADD_ABS_LO12_NC .rodata.str1.1+0x15
0000000000001528 R_AARCH64_ADD_ABS_LO12_NC .text+0xe0
0000000000001530 R_AARCH64_CALL26         _ZN4WAVM10Intrinsics8FunctionC1EPNS0_6ModuleEPKcPvNS_2IR12FunctionTypeE
0000000000001544 R_AARCH64_CALL26         _ZN4WAVM2IR9TypeTupleC1ENS0_9ValueTypeE
000000000000156c R_AARCH64_CALL26         _ZN4WAVM2IR9TypeTupleC1ERKSt16initializer_listINS0_9ValueTypeEE
000000000000157c R_AARCH64_CALL26         _ZN4WAVM2IR12FunctionType13getUniqueImplENS0_9TypeTupleES2_NS0_17CallingConventionE
0000000000001580 R_AARCH64_ADR_PREL_PG_HI21 .rodata.str1.1+0x2a
0000000000001584 R_AARCH64_ADR_PREL_PG_HI21 .text+0x284
0000000000001590 R_AARCH64_ADD_ABS_LO12_NC .rodata.str1.1+0x2a
0000000000001594 R_AARCH64_ADD_ABS_LO12_NC .text+0x284
000000000000159c R_AARCH64_CALL26         _ZN4WAVM10Intrinsics8FunctionC1EPNS0_6ModuleEPKcPvNS_2IR12FunctionTypeE
00000000000015b4 R_AARCH64_CALL26         _ZN4WAVM2IR9TypeTupleC1ENS0_9ValueTypeE
00000000000015d4 R_AARCH64_CALL26         _ZN4WAVM2IR9TypeTupleC1ERKSt16initializer_listINS0_9ValueTypeEE
00000000000015e4 R_AARCH64_CALL26         _ZN4WAVM2IR12FunctionType13getUniqueImplENS0_9TypeTupleES2_NS0_17CallingConventionE
00000000000015e8 R_AARCH64_ADR_PREL_PG_HI21 .rodata.str1.1+0x3f
00000000000015ec R_AARCH64_ADR_PREL_PG_HI21 .text+0x950
00000000000015f8 R_AARCH64_ADD_ABS_LO12_NC .rodata.str1.1+0x3f
00000000000015fc R_AARCH64_ADD_ABS_LO12_NC .text+0x950
0000000000001604 R_AARCH64_CALL26         _ZN4WAVM10Intrinsics8FunctionC1EPNS0_6ModuleEPKcPvNS_2IR12FunctionTypeE
0000000000001620 R_AARCH64_ADR_PREL_PG_HI21 .bss+0x8
0000000000001624 R_AARCH64_ADD_ABS_LO12_NC .bss+0x8
0000000000001628 R_AARCH64_CALL26         __cxa_guard_acquire
0000000000001630 R_AARCH64_ADR_GOT_PAGE   _ZN4WAVM10Intrinsics6ModuleD1Ev
0000000000001634 R_AARCH64_LD64_GOT_LO12_NC _ZN4WAVM10Intrinsics6ModuleD1Ev
0000000000001638 R_AARCH64_ADR_PREL_PG_HI21 __dso_handle
000000000000163c R_AARCH64_ADD_ABS_LO12_NC __dso_handle
0000000000001644 R_AARCH64_CALL26         __cxa_atexit
000000000000164c R_AARCH64_CALL26         __cxa_guard_release
0000000000001654 R_AARCH64_ADR_PREL_PG_HI21 .bss+0x8
0000000000001658 R_AARCH64_ADD_ABS_LO12_NC .bss+0x8
000000000000165c R_AARCH64_CALL26         __cxa_guard_acquire
0000000000001664 R_AARCH64_ADR_GOT_PAGE   _ZN4WAVM10Intrinsics6ModuleD1Ev
0000000000001668 R_AARCH64_LD64_GOT_LO12_NC _ZN4WAVM10Intrinsics6ModuleD1Ev
000000000000166c R_AARCH64_ADR_PREL_PG_HI21 __dso_handle
0000000000001670 R_AARCH64_ADD_ABS_LO12_NC __dso_handle
0000000000001678 R_AARCH64_CALL26         __cxa_atexit
0000000000001680 R_AARCH64_CALL26         __cxa_guard_release
0000000000001688 R_AARCH64_ADR_PREL_PG_HI21 .bss+0x8
000000000000168c R_AARCH64_ADD_ABS_LO12_NC .bss+0x8
0000000000001690 R_AARCH64_CALL26         __cxa_guard_acquire
0000000000001698 R_AARCH64_ADR_GOT_PAGE   _ZN4WAVM10Intrinsics6ModuleD1Ev
000000000000169c R_AARCH64_LD64_GOT_LO12_NC _ZN4WAVM10Intrinsics6ModuleD1Ev
00000000000016a0 R_AARCH64_ADR_PREL_PG_HI21 __dso_handle
00000000000016a4 R_AARCH64_ADD_ABS_LO12_NC __dso_handle
00000000000016ac R_AARCH64_CALL26         __cxa_atexit
00000000000016b4 R_AARCH64_CALL26         __cxa_guard_release
00000000000016bc R_AARCH64_ADR_PREL_PG_HI21 .bss+0x8
00000000000016c0 R_AARCH64_ADD_ABS_LO12_NC .bss+0x8
00000000000016c4 R_AARCH64_CALL26         __cxa_guard_acquire
00000000000016cc R_AARCH64_ADR_GOT_PAGE   _ZN4WAVM10Intrinsics6ModuleD1Ev
00000000000016d0 R_AARCH64_LD64_GOT_LO12_NC _ZN4WAVM10Intrinsics6ModuleD1Ev
00000000000016d4 R_AARCH64_ADR_PREL_PG_HI21 __dso_handle
00000000000016d8 R_AARCH64_ADD_ABS_LO12_NC __dso_handle
00000000000016e0 R_AARCH64_CALL26         __cxa_atexit
00000000000016e8 R_AARCH64_CALL26         __cxa_guard_release
00000000000016fc R_AARCH64_TLSDESC_ADR_PAGE21 __tls_guard
0000000000001700 R_AARCH64_TLSDESC_LD64_LO12 __tls_guard
0000000000001704 R_AARCH64_TLSDESC_ADD_LO12 __tls_guard
0000000000001708 R_AARCH64_TLSDESC_CALL   __tls_guard
000000000000171c R_AARCH64_TLSDESC_ADR_PAGE21 __tls_guard
0000000000001720 R_AARCH64_TLSDESC_LD64_LO12 __tls_guard
0000000000001724 R_AARCH64_TLSDESC_ADD_LO12 __tls_guard
0000000000001728 R_AARCH64_TLSDESC_CALL   __tls_guard
0000000000001734 R_AARCH64_TLSDESC_ADR_PAGE21 threadWakeEvent
0000000000001738 R_AARCH64_TLSDESC_LD64_LO12 threadWakeEvent
000000000000173c R_AARCH64_TLSDESC_ADD_LO12 threadWakeEvent
0000000000001740 R_AARCH64_TLSDESC_CALL   threadWakeEvent
0000000000001748 R_AARCH64_ADR_PREL_PG_HI21 _ZNSt3__110unique_ptrIN4WAVM8Platform5EventENS_14default_deleteIS3_EEED2Ev
000000000000174c R_AARCH64_ADR_PREL_PG_HI21 __dso_handle
0000000000001750 R_AARCH64_ADD_ABS_LO12_NC _ZNSt3__110unique_ptrIN4WAVM8Platform5EventENS_14default_deleteIS3_EEED2Ev
0000000000001754 R_AARCH64_ADD_ABS_LO12_NC __dso_handle
0000000000001760 R_AARCH64_JUMP26         __cxa_thread_atexit

RELOCATION RECORDS FOR [.text._ZNSt3__110unique_ptrIN4WAVM8Platform5EventENS_14default_deleteIS3_EEED2Ev]:
OFFSET           TYPE                     VALUE
000000000000001c R_AARCH64_CALL26         _ZN4WAVM8Platform5EventD1Ev
000000000000002c R_AARCH64_JUMP26         _ZdlPv

RELOCATION RECORDS FOR [.text._ZN4WAVM7HashMapImP8WaitListNS_17DefaultHashPolicyImEEED2Ev]:
OFFSET           TYPE                     VALUE
0000000000000018 R_AARCH64_CALL26         _ZdaPv

RELOCATION RECORDS FOR [.text.__clang_call_terminate]:
OFFSET           TYPE                     VALUE
0000000000000004 R_AARCH64_CALL26         __cxa_begin_catch
0000000000000008 R_AARCH64_CALL26         _ZSt9terminatev

RELOCATION RECORDS FOR [.text._ZNSt3__16vectorIN4WAVM2IR13UntaggedValueENS_9allocatorIS3_EEEC2ESt16initializer_listIS3_E]:
OFFSET           TYPE                     VALUE
0000000000000034 R_AARCH64_CALL26         _Znwm
0000000000000054 R_AARCH64_CALL26         memcpy
0000000000000074 R_AARCH64_CALL26         _ZNKSt3__120__vector_base_commonILb1EE20__throw_length_errorEv
000000000000008c R_AARCH64_CALL26         _ZdlPv
0000000000000094 R_AARCH64_CALL26         _Unwind_Resume

RELOCATION RECORDS FOR [.text._ZNSt3__120__throw_length_errorEPKc]:
OFFSET           TYPE                     VALUE
0000000000000014 R_AARCH64_CALL26         __cxa_allocate_exception
0000000000000020 R_AARCH64_CALL26         _ZNSt12length_errorC2EPKc
0000000000000024 R_AARCH64_ADR_GOT_PAGE   _ZTISt12length_error
0000000000000028 R_AARCH64_ADR_GOT_PAGE   _ZNSt12length_errorD1Ev
000000000000002c R_AARCH64_LD64_GOT_LO12_NC _ZTISt12length_error
0000000000000030 R_AARCH64_LD64_GOT_LO12_NC _ZNSt12length_errorD1Ev
0000000000000038 R_AARCH64_CALL26         __cxa_throw
0000000000000044 R_AARCH64_CALL26         __cxa_free_exception
000000000000004c R_AARCH64_CALL26         _Unwind_Resume

RELOCATION RECORDS FOR [.text._ZNSt12length_errorC2EPKc]:
OFFSET           TYPE                     VALUE
0000000000000010 R_AARCH64_CALL26         _ZNSt11logic_errorC2EPKc
0000000000000014 R_AARCH64_ADR_GOT_PAGE   _ZTVSt12length_error
0000000000000018 R_AARCH64_LD64_GOT_LO12_NC _ZTVSt12length_error

RELOCATION RECORDS FOR [.text._ZN4WAVM8Platform5Mutex4LockD2Ev]:
OFFSET           TYPE                     VALUE
0000000000000018 R_AARCH64_CALL26         _ZN4WAVM8Platform5Mutex6unlockEv
000000000000002c R_AARCH64_CALL26         __clang_call_terminate

RELOCATION RECORDS FOR [.text._ZN4WAVM7HashMapImP8WaitListNS_17DefaultHashPolicyImEEE3setIJRS2_EEES7_RKmDpOT_]:
OFFSET           TYPE                     VALUE
0000000000000110 R_AARCH64_CALL26         _ZN4WAVM9HashTableImNS_11HashMapPairImP8WaitListEENS_7HashMapImS3_NS_17DefaultHashPolicyImEEE15HashTablePolicyENS_27DefaultHashTableAllocPolicyEE6resizeEm

RELOCATION RECORDS FOR [.text._ZN4WAVM9HashTableImNS_11HashMapPairImP8WaitListEENS_7HashMapImS3_NS_17DefaultHashPolicyImEEE15HashTablePolicyENS_27DefaultHashTableAllocPolicyEE6resizeEm]:
OFFSET           TYPE                     VALUE
0000000000000048 R_AARCH64_CALL26         _Znam
0000000000000058 R_AARCH64_CALL26         memset
00000000000001f4 R_AARCH64_JUMP26         _ZdaPv

RELOCATION RECORDS FOR [.text._ZN4WAVM9HashTableImNS_11HashMapPairImP8WaitListEENS_7HashMapImS3_NS_17DefaultHashPolicyImEEE15HashTablePolicyENS_27DefaultHashTableAllocPolicyEE6removeEmRKm]:
OFFSET           TYPE                     VALUE
0000000000000188 R_AARCH64_CALL26         _ZN4WAVM9HashTableImNS_11HashMapPairImP8WaitListEENS_7HashMapImS3_NS_17DefaultHashPolicyImEEE15HashTablePolicyENS_27DefaultHashTableAllocPolicyEE6resizeEm

RELOCATION RECORDS FOR [.text._ZTW15threadWakeEvent]:
OFFSET           TYPE                     VALUE
0000000000000010 R_AARCH64_TLSDESC_ADR_PAGE21 __tls_guard
0000000000000014 R_AARCH64_TLSDESC_LD64_LO12 __tls_guard
0000000000000018 R_AARCH64_TLSDESC_ADD_LO12 __tls_guard
000000000000001c R_AARCH64_TLSDESC_CALL   __tls_guard
0000000000000028 R_AARCH64_TLSDESC_ADR_PAGE21 threadWakeEvent
000000000000002c R_AARCH64_TLSDESC_LD64_LO12 threadWakeEvent
0000000000000030 R_AARCH64_TLSDESC_ADD_LO12 threadWakeEvent
0000000000000034 R_AARCH64_TLSDESC_CALL   threadWakeEvent
0000000000000048 R_AARCH64_TLSDESC_ADR_PAGE21 __tls_guard
000000000000004c R_AARCH64_TLSDESC_LD64_LO12 __tls_guard
0000000000000050 R_AARCH64_TLSDESC_ADD_LO12 __tls_guard
0000000000000054 R_AARCH64_TLSDESC_CALL   __tls_guard
0000000000000060 R_AARCH64_TLSDESC_ADR_PAGE21 threadWakeEvent
0000000000000064 R_AARCH64_TLSDESC_LD64_LO12 threadWakeEvent
0000000000000068 R_AARCH64_TLSDESC_ADD_LO12 threadWakeEvent
000000000000006c R_AARCH64_TLSDESC_CALL   threadWakeEvent
0000000000000074 R_AARCH64_ADR_PREL_PG_HI21 _ZNSt3__110unique_ptrIN4WAVM8Platform5EventENS_14default_deleteIS3_EEED2Ev
0000000000000078 R_AARCH64_ADR_PREL_PG_HI21 __dso_handle
000000000000007c R_AARCH64_ADD_ABS_LO12_NC _ZNSt3__110unique_ptrIN4WAVM8Platform5EventENS_14default_deleteIS3_EEED2Ev
0000000000000080 R_AARCH64_ADD_ABS_LO12_NC __dso_handle
0000000000000088 R_AARCH64_CALL26         __cxa_thread_atexit
000000000000008c R_AARCH64_TLSDESC_ADR_PAGE21 threadWakeEvent
0000000000000090 R_AARCH64_TLSDESC_LD64_LO12 threadWakeEvent
0000000000000094 R_AARCH64_TLSDESC_ADD_LO12 threadWakeEvent
0000000000000098 R_AARCH64_TLSDESC_CALL   threadWakeEvent

RELOCATION RECORDS FOR [.data.rel.ro._ZTISt9exception]:
OFFSET           TYPE                     VALUE
0000000000000000 R_AARCH64_ABS64          _ZTVN10__cxxabiv117__class_type_infoE+0x10
0000000000000008 R_AARCH64_ABS64          _ZTSSt9exception

RELOCATION RECORDS FOR [.data.rel.ro._ZTISt11logic_error]:
OFFSET           TYPE                     VALUE
0000000000000000 R_AARCH64_ABS64          _ZTVN10__cxxabiv120__si_class_type_infoE+0x10
0000000000000008 R_AARCH64_ABS64          _ZTSSt11logic_error
0000000000000010 R_AARCH64_ABS64          _ZTISt9exception

RELOCATION RECORDS FOR [.data.rel.ro._ZTISt12length_error]:
OFFSET           TYPE                     VALUE
0000000000000000 R_AARCH64_ABS64          _ZTVN10__cxxabiv120__si_class_type_infoE+0x10
0000000000000008 R_AARCH64_ABS64          _ZTSSt12length_error
0000000000000010 R_AARCH64_ABS64          _ZTISt11logic_error

RELOCATION RECORDS FOR [.data.rel.ro]:
OFFSET           TYPE                     VALUE
0000000000000000 R_AARCH64_ABS64          .rodata.str1.1+0x98
0000000000000008 R_AARCH64_ABS64          .rodata.str1.1+0xe2
0000000000000030 R_AARCH64_ABS64          _ZNSt3__110__function6__baseIFvvEED2Ev
0000000000000038 R_AARCH64_ABS64          .text+0x131c
0000000000000040 R_AARCH64_ABS64          .text+0x1320
0000000000000048 R_AARCH64_ABS64          .text+0x1358
0000000000000050 R_AARCH64_ABS64          .text+0x1370
0000000000000058 R_AARCH64_ABS64          .text+0x1374
0000000000000060 R_AARCH64_ABS64          .text+0x1378
0000000000000070 R_AARCH64_ABS64          .rodata.str1.1+0x98
0000000000000078 R_AARCH64_ABS64          .rodata.str1.1+0xe2
00000000000000a0 R_AARCH64_ABS64          _ZNSt3__110__function6__baseIFvvEED2Ev
00000000000000a8 R_AARCH64_ABS64          .text+0x1388
00000000000000b0 R_AARCH64_ABS64          .text+0x138c
00000000000000b8 R_AARCH64_ABS64          .text+0x13c4
00000000000000c0 R_AARCH64_ABS64          .text+0x13dc
00000000000000c8 R_AARCH64_ABS64          .text+0x13e0
00000000000000d0 R_AARCH64_ABS64          .text+0x13e4

RELOCATION RECORDS FOR [.init_array]:
OFFSET           TYPE                     VALUE
0000000000000000 R_AARCH64_ABS64          .text+0x13f4

RELOCATION RECORDS FOR [.debug_info]:
OFFSET           TYPE                     VALUE
0000000000000006 R_AARCH64_ABS32          .debug_abbrev
000000000000000c R_AARCH64_ABS32          .debug_line
0000000000000010 R_AARCH64_ABS32          .debug_str
0000000000000014 R_AARCH64_ABS32          .debug_str+0x14
0000000000000020 R_AARCH64_ABS32          .debug_ranges
000000000000002c R_AARCH64_ABS32          .debug_ranges+0x28e0
0000000000000030 R_AARCH64_ABS32          .debug_addr

RELOCATION RECORDS FOR [.debug_ranges]:
OFFSET           TYPE                     VALUE
0000000000000000 R_AARCH64_ABS64          .text+0x94
0000000000000008 R_AARCH64_ABS64          .text+0x98
0000000000000010 R_AARCH64_ABS64          .text+0xa0
0000000000000018 R_AARCH64_ABS64          .text+0xb4
0000000000000030 R_AARCH64_ABS64          .text+0x94
0000000000000038 R_AARCH64_ABS64          .text+0x98
0000000000000040 R_AARCH64_ABS64          .text+0xa0
0000000000000048 R_AARCH64_ABS64          .text+0xa4
0000000000000050 R_AARCH64_ABS64          .text+0xa8
0000000000000058 R_AARCH64_ABS64          .text+0xac
0000000000000060 R_AARCH64_ABS64          .text+0xb0
0000000000000068 R_AARCH64_ABS64          .text+0xb4
0000000000000080 R_AARCH64_ABS64          .text+0x94
0000000000000088 R_AARCH64_ABS64          .text+0x98
0000000000000090 R_AARCH64_ABS64          .text+0xa0
0000000000000098 R_AARCH64_ABS64          .text+0xa4
00000000000000b0 R_AARCH64_ABS64          .text+0x94
00000000000000b8 R_AARCH64_ABS64          .text+0x98
00000000000000c0 R_AARCH64_ABS64          .text+0xa0
00000000000000c8 R_AARCH64_ABS64          .text+0xa4
00000000000000e0 R_AARCH64_ABS64          .text+0x94
00000000000000e8 R_AARCH64_ABS64          .text+0x98
00000000000000f0 R_AARCH64_ABS64          .text+0xa0
00000000000000f8 R_AARCH64_ABS64          .text+0xa4
0000000000000110 R_AARCH64_ABS64          .text+0x94
0000000000000118 R_AARCH64_ABS64          .text+0x98
0000000000000120 R_AARCH64_ABS64          .text+0xa0
0000000000000128 R_AARCH64_ABS64          .text+0xa4
0000000000000140 R_AARCH64_ABS64          .text+0xa4
0000000000000148 R_AARCH64_ABS64          .text+0xa8
0000000000000150 R_AARCH64_ABS64          .text+0xac
0000000000000158 R_AARCH64_ABS64          .text+0xb0
0000000000000170 R_AARCH64_ABS64          .text+0xa4
0000000000000178 R_AARCH64_ABS64          .text+0xa8
0000000000000180 R_AARCH64_ABS64          .text+0xac
0000000000000188 R_AARCH64_ABS64          .text+0xb0
00000000000001a0 R_AARCH64_ABS64          .text+0xcc
00000000000001a8 R_AARCH64_ABS64          .text+0xd0
00000000000001b0 R_AARCH64_ABS64          .text+0xd4
00000000000001b8 R_AARCH64_ABS64          .text+0xd8
00000000000001d0 R_AARCH64_ABS64          .text+0xcc
00000000000001d8 R_AARCH64_ABS64          .text+0xd0
00000000000001e0 R_AARCH64_ABS64          .text+0xd4
00000000000001e8 R_AARCH64_ABS64          .text+0xd8
0000000000000200 R_AARCH64_ABS64          .text+0xcc
0000000000000208 R_AARCH64_ABS64          .text+0xd0
0000000000000210 R_AARCH64_ABS64          .text+0xd4
0000000000000218 R_AARCH64_ABS64          .text+0xd8
0000000000000230 R_AARCH64_ABS64          .text+0xcc
0000000000000238 R_AARCH64_ABS64          .text+0xd0
0000000000000240 R_AARCH64_ABS64          .text+0xd4
0000000000000248 R_AARCH64_ABS64          .text+0xd8
0000000000000260 R_AARCH64_ABS64          .text+0xcc
0000000000000268 R_AARCH64_ABS64          .text+0xd0
0000000000000270 R_AARCH64_ABS64          .text+0xd4
0000000000000278 R_AARCH64_ABS64          .text+0xd8
0000000000000290 R_AARCH64_ABS64          .text+0x120
0000000000000298 R_AARCH64_ABS64          .text+0x124
00000000000002a0 R_AARCH64_ABS64          .text+0x12c
00000000000002a8 R_AARCH64_ABS64          .text+0x1c4
00000000000002b0 R_AARCH64_ABS64          .text+0x21c
00000000000002b8 R_AARCH64_ABS64          .text+0x250
00000000000002c0 R_AARCH64_ABS64          .text+0x274
00000000000002c8 R_AARCH64_ABS64          .text+0x27c
00000000000002e0 R_AARCH64_ABS64          .text+0x164
00000000000002e8 R_AARCH64_ABS64          .text+0x174
00000000000002f0 R_AARCH64_ABS64          .text+0x178
00000000000002f8 R_AARCH64_ABS64          .text+0x184
0000000000000310 R_AARCH64_ABS64          .text+0x184
0000000000000318 R_AARCH64_ABS64          .text+0x188
0000000000000320 R_AARCH64_ABS64          .text+0x18c
0000000000000328 R_AARCH64_ABS64          .text+0x1a8
0000000000000340 R_AARCH64_ABS64          .text+0x138
0000000000000348 R_AARCH64_ABS64          .text+0x154
0000000000000350 R_AARCH64_ABS64          .text+0x158
0000000000000358 R_AARCH64_ABS64          .text+0x1a8
0000000000000370 R_AARCH64_ABS64          .text+0x1a8
0000000000000378 R_AARCH64_ABS64          .text+0x1b0
0000000000000380 R_AARCH64_ABS64          .text+0x24c
0000000000000388 R_AARCH64_ABS64          .text+0x250
00000000000003a0 R_AARCH64_ABS64          .text+0x928
00000000000003a8 R_AARCH64_ABS64          .text+0x92c
00000000000003b0 R_AARCH64_ABS64          .text+0x930
00000000000003b8 R_AARCH64_ABS64          .text+0x93c
00000000000003d0 R_AARCH64_ABS64          .text+0x928
00000000000003d8 R_AARCH64_ABS64          .text+0x92c
00000000000003e0 R_AARCH64_ABS64          .text+0x930
00000000000003e8 R_AARCH64_ABS64          .text+0x93c
0000000000000400 R_AARCH64_ABS64          .text+0x928
0000000000000408 R_AARCH64_ABS64          .text+0x92c
0000000000000410 R_AARCH64_ABS64          .text+0x930
0000000000000418 R_AARCH64_ABS64          .text+0x93c
0000000000000430 R_AARCH64_ABS64          .text+0x928
0000000000000438 R_AARCH64_ABS64          .text+0x92c
0000000000000440 R_AARCH64_ABS64          .text+0x930
0000000000000448 R_AARCH64_ABS64          .text+0x93c
0000000000000460 R_AARCH64_ABS64          .text+0x928
0000000000000468 R_AARCH64_ABS64          .text+0x92c
0000000000000470 R_AARCH64_ABS64          .text+0x930
0000000000000478 R_AARCH64_ABS64          .text+0x93c
0000000000000490 R_AARCH64_ABS64          .text+0x2d0
0000000000000498 R_AARCH64_ABS64          .text+0x6e8
00000000000004a0 R_AARCH64_ABS64          .text+0x70c
00000000000004a8 R_AARCH64_ABS64          .text+0x880
00000000000004b0 R_AARCH64_ABS64          .text+0x8b0
00000000000004b8 R_AARCH64_ABS64          .text+0x91c
00000000000004c0 R_AARCH64_ABS64          .text+0x940
00000000000004c8 R_AARCH64_ABS64          .text+0x948
00000000000004e0 R_AARCH64_ABS64          .text+0x338
00000000000004e8 R_AARCH64_ABS64          .text+0x354
00000000000004f0 R_AARCH64_ABS64          .text+0x42c
00000000000004f8 R_AARCH64_ABS64          .text+0x470
0000000000000510 R_AARCH64_ABS64          .text+0x444
0000000000000518 R_AARCH64_ABS64          .text+0x458
0000000000000520 R_AARCH64_ABS64          .text+0x468
0000000000000528 R_AARCH64_ABS64          .text+0x46c
0000000000000540 R_AARCH64_ABS64          .text+0x444
0000000000000548 R_AARCH64_ABS64          .text+0x458
0000000000000550 R_AARCH64_ABS64          .text+0x468
0000000000000558 R_AARCH64_ABS64          .text+0x46c
0000000000000570 R_AARCH64_ABS64          .text+0x444
0000000000000578 R_AARCH64_ABS64          .text+0x458
0000000000000580 R_AARCH64_ABS64          .text+0x468
0000000000000588 R_AARCH64_ABS64          .text+0x46c
00000000000005a0 R_AARCH64_ABS64          .text+0x354
00000000000005a8 R_AARCH64_ABS64          .text+0x368
00000000000005b0 R_AARCH64_ABS64          .text+0x470
00000000000005b8 R_AARCH64_ABS64          .text+0x48c
00000000000005d0 R_AARCH64_ABS64          .text+0x37c
00000000000005d8 R_AARCH64_ABS64          .text+0x394
00000000000005e0 R_AARCH64_ABS64          .text+0x7cc
00000000000005e8 R_AARCH64_ABS64          .text+0x810
0000000000000600 R_AARCH64_ABS64          .text+0x7e4
0000000000000608 R_AARCH64_ABS64          .text+0x7f8
0000000000000610 R_AARCH64_ABS64          .text+0x808
0000000000000618 R_AARCH64_ABS64          .text+0x80c
0000000000000630 R_AARCH64_ABS64          .text+0x7e4
0000000000000638 R_AARCH64_ABS64          .text+0x7f8
0000000000000640 R_AARCH64_ABS64          .text+0x808
0000000000000648 R_AARCH64_ABS64          .text+0x80c
0000000000000660 R_AARCH64_ABS64          .text+0x7e4
0000000000000668 R_AARCH64_ABS64          .text+0x7f8
0000000000000670 R_AARCH64_ABS64          .text+0x808
0000000000000678 R_AARCH64_ABS64          .text+0x80c
0000000000000690 R_AARCH64_ABS64          .text+0x394
0000000000000698 R_AARCH64_ABS64          .text+0x3c0
00000000000006a0 R_AARCH64_ABS64          .text+0x810
00000000000006a8 R_AARCH64_ABS64          .text+0x830
00000000000006c0 R_AARCH64_ABS64          .text+0x394
00000000000006c8 R_AARCH64_ABS64          .text+0x3c0
00000000000006d0 R_AARCH64_ABS64          .text+0x810
00000000000006d8 R_AARCH64_ABS64          .text+0x830
00000000000006f0 R_AARCH64_ABS64          .text+0x3c0
00000000000006f8 R_AARCH64_ABS64          .text+0x3d8
0000000000000700 R_AARCH64_ABS64          .text+0x48c
0000000000000708 R_AARCH64_ABS64          .text+0x4d0
0000000000000720 R_AARCH64_ABS64          .text+0x4a4
0000000000000728 R_AARCH64_ABS64          .text+0x4b8
0000000000000730 R_AARCH64_ABS64          .text+0x4c8
0000000000000738 R_AARCH64_ABS64          .text+0x4cc
0000000000000750 R_AARCH64_ABS64          .text+0x4a4
0000000000000758 R_AARCH64_ABS64          .text+0x4b8
0000000000000760 R_AARCH64_ABS64          .text+0x4c8
0000000000000768 R_AARCH64_ABS64          .text+0x4cc
0000000000000780 R_AARCH64_ABS64          .text+0x4a4
0000000000000788 R_AARCH64_ABS64          .text+0x4b8
0000000000000790 R_AARCH64_ABS64          .text+0x4c8
0000000000000798 R_AARCH64_ABS64          .text+0x4cc
00000000000007b0 R_AARCH64_ABS64          .text+0x3d8
00000000000007b8 R_AARCH64_ABS64          .text+0x3e8
00000000000007c0 R_AARCH64_ABS64          .text+0x3ec
00000000000007c8 R_AARCH64_ABS64          .text+0x3f0
00000000000007d0 R_AARCH64_ABS64          .text+0x4d0
00000000000007d8 R_AARCH64_ABS64          .text+0x4e0
00000000000007e0 R_AARCH64_ABS64          .text+0x4e4
00000000000007e8 R_AARCH64_ABS64          .text+0x4e8
0000000000000800 R_AARCH64_ABS64          .text+0x3e8
0000000000000808 R_AARCH64_ABS64          .text+0x3ec
0000000000000810 R_AARCH64_ABS64          .text+0x3f0
0000000000000818 R_AARCH64_ABS64          .text+0x3fc
0000000000000820 R_AARCH64_ABS64          .text+0x400
0000000000000828 R_AARCH64_ABS64          .text+0x404
0000000000000830 R_AARCH64_ABS64          .text+0x4e0
0000000000000838 R_AARCH64_ABS64          .text+0x4e4
0000000000000840 R_AARCH64_ABS64          .text+0x4e8
0000000000000848 R_AARCH64_ABS64          .text+0x4f0
0000000000000850 R_AARCH64_ABS64          .text+0x4f4
0000000000000858 R_AARCH64_ABS64          .text+0x580
0000000000000860 R_AARCH64_ABS64          .text+0x678
0000000000000868 R_AARCH64_ABS64          .text+0x690
0000000000000870 R_AARCH64_ABS64          .text+0x8b0
0000000000000878 R_AARCH64_ABS64          .text+0x8c0
0000000000000890 R_AARCH64_ABS64          .text+0x3f8
0000000000000898 R_AARCH64_ABS64          .text+0x3fc
00000000000008a0 R_AARCH64_ABS64          .text+0x400
00000000000008a8 R_AARCH64_ABS64          .text+0x404
00000000000008c0 R_AARCH64_ABS64          .text+0x4f4
00000000000008c8 R_AARCH64_ABS64          .text+0x580
00000000000008d0 R_AARCH64_ABS64          .text+0x678
00000000000008d8 R_AARCH64_ABS64          .text+0x690
00000000000008e0 R_AARCH64_ABS64          .text+0x8b0
00000000000008e8 R_AARCH64_ABS64          .text+0x8c0
0000000000000900 R_AARCH64_ABS64          .text+0x504
0000000000000908 R_AARCH64_ABS64          .text+0x530
0000000000000910 R_AARCH64_ABS64          .text+0x8b0
0000000000000918 R_AARCH64_ABS64          .text+0x8b4
0000000000000930 R_AARCH64_ABS64          .text+0x530
0000000000000938 R_AARCH64_ABS64          .text+0x550
0000000000000940 R_AARCH64_ABS64          .text+0x678
0000000000000948 R_AARCH64_ABS64          .text+0x680
0000000000000950 R_AARCH64_ABS64          .text+0x8b4
0000000000000958 R_AARCH64_ABS64          .text+0x8c0
0000000000000970 R_AARCH64_ABS64          .text+0x534
0000000000000978 R_AARCH64_ABS64          .text+0x544
0000000000000980 R_AARCH64_ABS64          .text+0x8b4
0000000000000988 R_AARCH64_ABS64          .text+0x8c0
00000000000009a0 R_AARCH64_ABS64          .text+0x534
00000000000009a8 R_AARCH64_ABS64          .text+0x544
00000000000009b0 R_AARCH64_ABS64          .text+0x8b4
00000000000009b8 R_AARCH64_ABS64          .text+0x8c0
00000000000009d0 R_AARCH64_ABS64          .text+0x550
00000000000009d8 R_AARCH64_ABS64          .text+0x554
00000000000009e0 R_AARCH64_ABS64          .text+0x558
00000000000009e8 R_AARCH64_ABS64          .text+0x574
00000000000009f0 R_AARCH64_ABS64          .text+0x680
00000000000009f8 R_AARCH64_ABS64          .text+0x684
0000000000000a00 R_AARCH64_ABS64          .text+0x688
0000000000000a08 R_AARCH64_ABS64          .text+0x690
0000000000000a20 R_AARCH64_ABS64          .text+0x550
0000000000000a28 R_AARCH64_ABS64          .text+0x554
0000000000000a30 R_AARCH64_ABS64          .text+0x558
0000000000000a38 R_AARCH64_ABS64          .text+0x56c
0000000000000a40 R_AARCH64_ABS64          .text+0x680
0000000000000a48 R_AARCH64_ABS64          .text+0x684
0000000000000a50 R_AARCH64_ABS64          .text+0x688
0000000000000a58 R_AARCH64_ABS64          .text+0x690
0000000000000a70 R_AARCH64_ABS64          .text+0x554
0000000000000a78 R_AARCH64_ABS64          .text+0x558
0000000000000a80 R_AARCH64_ABS64          .text+0x684
0000000000000a88 R_AARCH64_ABS64          .text+0x688
0000000000000aa0 R_AARCH64_ABS64          .text+0x554
0000000000000aa8 R_AARCH64_ABS64          .text+0x558
0000000000000ab0 R_AARCH64_ABS64          .text+0x684
0000000000000ab8 R_AARCH64_ABS64          .text+0x688
0000000000000ad0 R_AARCH64_ABS64          .text+0x3fc
0000000000000ad8 R_AARCH64_ABS64          .text+0x400
0000000000000ae0 R_AARCH64_ABS64          .text+0x404
0000000000000ae8 R_AARCH64_ABS64          .text+0x40c
0000000000000af0 R_AARCH64_ABS64          .text+0x588
0000000000000af8 R_AARCH64_ABS64          .text+0x58c
0000000000000b10 R_AARCH64_ABS64          .text+0x2d8
0000000000000b18 R_AARCH64_ABS64          .text+0x58c
0000000000000b20 R_AARCH64_ABS64          .text+0x678
0000000000000b28 R_AARCH64_ABS64          .text+0x690
0000000000000b30 R_AARCH64_ABS64          .text+0x7cc
0000000000000b38 R_AARCH64_ABS64          .text+0x830
0000000000000b40 R_AARCH64_ABS64          .text+0x8b0
0000000000000b48 R_AARCH64_ABS64          .text+0x8c0
0000000000000b50 R_AARCH64_ABS64          .text+0x8c8
0000000000000b58 R_AARCH64_ABS64          .text+0x8d4
0000000000000b60 R_AARCH64_ABS64          .text+0x8e8
0000000000000b68 R_AARCH64_ABS64          .text+0x91c
0000000000000b80 R_AARCH64_ABS64          .text+0x58c
0000000000000b88 R_AARCH64_ABS64          .text+0x5a4
0000000000000b90 R_AARCH64_ABS64          .text+0x720
0000000000000b98 R_AARCH64_ABS64          .text+0x768
0000000000000bb0 R_AARCH64_ABS64          .text+0x738
0000000000000bb8 R_AARCH64_ABS64          .text+0x74c
0000000000000bc0 R_AARCH64_ABS64          .text+0x75c
0000000000000bc8 R_AARCH64_ABS64          .text+0x760
0000000000000be0 R_AARCH64_ABS64          .text+0x738
0000000000000be8 R_AARCH64_ABS64          .text+0x74c
0000000000000bf0 R_AARCH64_ABS64          .text+0x75c
0000000000000bf8 R_AARCH64_ABS64          .text+0x760
0000000000000c10 R_AARCH64_ABS64          .text+0x738
0000000000000c18 R_AARCH64_ABS64          .text+0x74c
0000000000000c20 R_AARCH64_ABS64          .text+0x75c
0000000000000c28 R_AARCH64_ABS64          .text+0x760
0000000000000c40 R_AARCH64_ABS64          .text+0x5e8
0000000000000c48 R_AARCH64_ABS64          .text+0x600
0000000000000c50 R_AARCH64_ABS64          .text+0x768
0000000000000c58 R_AARCH64_ABS64          .text+0x7ac
0000000000000c70 R_AARCH64_ABS64          .text+0x780
0000000000000c78 R_AARCH64_ABS64          .text+0x794
0000000000000c80 R_AARCH64_ABS64          .text+0x7a4
0000000000000c88 R_AARCH64_ABS64          .text+0x7a8
0000000000000ca0 R_AARCH64_ABS64          .text+0x780
0000000000000ca8 R_AARCH64_ABS64          .text+0x794
0000000000000cb0 R_AARCH64_ABS64          .text+0x7a4
0000000000000cb8 R_AARCH64_ABS64          .text+0x7a8
0000000000000cd0 R_AARCH64_ABS64          .text+0x780
0000000000000cd8 R_AARCH64_ABS64          .text+0x794
0000000000000ce0 R_AARCH64_ABS64          .text+0x7a4
0000000000000ce8 R_AARCH64_ABS64          .text+0x7a8
0000000000000d00 R_AARCH64_ABS64          .text+0x600
0000000000000d08 R_AARCH64_ABS64          .text+0x614
0000000000000d10 R_AARCH64_ABS64          .text+0x7ac
0000000000000d18 R_AARCH64_ABS64          .text+0x7c0
0000000000000d30 R_AARCH64_ABS64          .text+0x614
0000000000000d38 R_AARCH64_ABS64          .text+0x634
0000000000000d40 R_AARCH64_ABS64          .text+0x7c0
0000000000000d48 R_AARCH64_ABS64          .text+0x7cc
0000000000000d60 R_AARCH64_ABS64          .text+0x644
0000000000000d68 R_AARCH64_ABS64          .text+0x65c
0000000000000d70 R_AARCH64_ABS64          .text+0x660
0000000000000d78 R_AARCH64_ABS64          .text+0x66c
0000000000000d80 R_AARCH64_ABS64          .text+0x6cc
0000000000000d88 R_AARCH64_ABS64          .text+0x6d4
0000000000000da0 R_AARCH64_ABS64          .text+0x648
0000000000000da8 R_AARCH64_ABS64          .text+0x65c
0000000000000db0 R_AARCH64_ABS64          .text+0x660
0000000000000db8 R_AARCH64_ABS64          .text+0x668
0000000000000dd0 R_AARCH64_ABS64          .text+0x648
0000000000000dd8 R_AARCH64_ABS64          .text+0x65c
0000000000000de0 R_AARCH64_ABS64          .text+0x660
0000000000000de8 R_AARCH64_ABS64          .text+0x668
0000000000000e00 R_AARCH64_ABS64          .text+0x668
0000000000000e08 R_AARCH64_ABS64          .text+0x66c
0000000000000e10 R_AARCH64_ABS64          .text+0x6cc
0000000000000e18 R_AARCH64_ABS64          .text+0x6d4
0000000000000e30 R_AARCH64_ABS64          .text+0x668
0000000000000e38 R_AARCH64_ABS64          .text+0x66c
0000000000000e40 R_AARCH64_ABS64          .text+0x6cc
0000000000000e48 R_AARCH64_ABS64          .text+0x6d4
0000000000000e60 R_AARCH64_ABS64          .text+0x690
0000000000000e68 R_AARCH64_ABS64          .text+0x6a8
0000000000000e70 R_AARCH64_ABS64          .text+0x830
0000000000000e78 R_AARCH64_ABS64          .text+0x878
0000000000000e90 R_AARCH64_ABS64          .text+0x848
0000000000000e98 R_AARCH64_ABS64          .text+0x85c
0000000000000ea0 R_AARCH64_ABS64          .text+0x870
0000000000000ea8 R_AARCH64_ABS64          .text+0x874
0000000000000ec0 R_AARCH64_ABS64          .text+0x848
0000000000000ec8 R_AARCH64_ABS64          .text+0x85c
0000000000000ed0 R_AARCH64_ABS64          .text+0x870
0000000000000ed8 R_AARCH64_ABS64          .text+0x874
0000000000000ef0 R_AARCH64_ABS64          .text+0x848
0000000000000ef8 R_AARCH64_ABS64          .text+0x85c
0000000000000f00 R_AARCH64_ABS64          .text+0x870
0000000000000f08 R_AARCH64_ABS64          .text+0x874
0000000000000f20 R_AARCH64_ABS64          .text+0x5d8
0000000000000f28 R_AARCH64_ABS64          .text+0x65c
0000000000000f30 R_AARCH64_ABS64          .text+0x660
0000000000000f38 R_AARCH64_ABS64          .text+0x66c
0000000000000f40 R_AARCH64_ABS64          .text+0x690
0000000000000f48 R_AARCH64_ABS64          .text+0x6d4
0000000000000f50 R_AARCH64_ABS64          .text+0x70c
0000000000000f58 R_AARCH64_ABS64          .text+0x720
0000000000000f60 R_AARCH64_ABS64          .text+0x768
0000000000000f68 R_AARCH64_ABS64          .text+0x7cc
0000000000000f70 R_AARCH64_ABS64          .text+0x830
0000000000000f78 R_AARCH64_ABS64          .text+0x880
0000000000000f90 R_AARCH64_ABS64          .text+0x65c
0000000000000f98 R_AARCH64_ABS64          .text+0x660
0000000000000fa0 R_AARCH64_ABS64          .text+0x66c
0000000000000fa8 R_AARCH64_ABS64          .text+0x674
0000000000000fb0 R_AARCH64_ABS64          .text+0x6d8
0000000000000fb8 R_AARCH64_ABS64          .text+0x6dc
0000000000000fc0 R_AARCH64_ABS64          .text+0x8c0
0000000000000fc8 R_AARCH64_ABS64          .text+0x8c4
0000000000000fe0 R_AARCH64_ABS64          .text+0x65c
0000000000000fe8 R_AARCH64_ABS64          .text+0x660
0000000000000ff0 R_AARCH64_ABS64          .text+0x66c
0000000000000ff8 R_AARCH64_ABS64          .text+0x674
0000000000001000 R_AARCH64_ABS64          .text+0x6d8
0000000000001008 R_AARCH64_ABS64          .text+0x6dc
0000000000001020 R_AARCH64_ABS64          .text+0xff4
0000000000001028 R_AARCH64_ABS64          .text+0xff8
0000000000001030 R_AARCH64_ABS64          .text+0xffc
0000000000001038 R_AARCH64_ABS64          .text+0x1008
0000000000001050 R_AARCH64_ABS64          .text+0xff4
0000000000001058 R_AARCH64_ABS64          .text+0xff8
0000000000001060 R_AARCH64_ABS64          .text+0xffc
0000000000001068 R_AARCH64_ABS64          .text+0x1008
0000000000001080 R_AARCH64_ABS64          .text+0xff4
0000000000001088 R_AARCH64_ABS64          .text+0xff8
0000000000001090 R_AARCH64_ABS64          .text+0xffc
0000000000001098 R_AARCH64_ABS64          .text+0x1008
00000000000010b0 R_AARCH64_ABS64          .text+0xff4
00000000000010b8 R_AARCH64_ABS64          .text+0xff8
00000000000010c0 R_AARCH64_ABS64          .text+0xffc
00000000000010c8 R_AARCH64_ABS64          .text+0x1008
00000000000010e0 R_AARCH64_ABS64          .text+0xff4
00000000000010e8 R_AARCH64_ABS64          .text+0xff8
00000000000010f0 R_AARCH64_ABS64          .text+0xffc
00000000000010f8 R_AARCH64_ABS64          .text+0x1008
0000000000001110 R_AARCH64_ABS64          .text+0x99c
0000000000001118 R_AARCH64_ABS64          .text+0xdb4
0000000000001120 R_AARCH64_ABS64          .text+0xdd8
0000000000001128 R_AARCH64_ABS64          .text+0xf4c
0000000000001130 R_AARCH64_ABS64          .text+0xf7c
0000000000001138 R_AARCH64_ABS64          .text+0xfe8
0000000000001140 R_AARCH64_ABS64          .text+0x100c
0000000000001148 R_AARCH64_ABS64          .text+0x1014
0000000000001160 R_AARCH64_ABS64          .text+0xa04
0000000000001168 R_AARCH64_ABS64          .text+0xa20
0000000000001170 R_AARCH64_ABS64          .text+0xaf8
0000000000001178 R_AARCH64_ABS64          .text+0xb3c
0000000000001190 R_AARCH64_ABS64          .text+0xb10
0000000000001198 R_AARCH64_ABS64          .text+0xb24
00000000000011a0 R_AARCH64_ABS64          .text+0xb34
00000000000011a8 R_AARCH64_ABS64          .text+0xb38
00000000000011c0 R_AARCH64_ABS64          .text+0xb10
00000000000011c8 R_AARCH64_ABS64          .text+0xb24
00000000000011d0 R_AARCH64_ABS64          .text+0xb34
00000000000011d8 R_AARCH64_ABS64          .text+0xb38
00000000000011f0 R_AARCH64_ABS64          .text+0xb10
00000000000011f8 R_AARCH64_ABS64          .text+0xb24
0000000000001200 R_AARCH64_ABS64          .text+0xb34
0000000000001208 R_AARCH64_ABS64          .text+0xb38
0000000000001220 R_AARCH64_ABS64          .text+0xa20
0000000000001228 R_AARCH64_ABS64          .text+0xa34
0000000000001230 R_AARCH64_ABS64          .text+0xb3c
0000000000001238 R_AARCH64_ABS64          .text+0xb58
0000000000001250 R_AARCH64_ABS64          .text+0xa48
0000000000001258 R_AARCH64_ABS64          .text+0xa60
0000000000001260 R_AARCH64_ABS64          .text+0xe98
0000000000001268 R_AARCH64_ABS64          .text+0xedc
0000000000001280 R_AARCH64_ABS64          .text+0xeb0
0000000000001288 R_AARCH64_ABS64          .text+0xec4
0000000000001290 R_AARCH64_ABS64          .text+0xed4
0000000000001298 R_AARCH64_ABS64          .text+0xed8
00000000000012b0 R_AARCH64_ABS64          .text+0xeb0
00000000000012b8 R_AARCH64_ABS64          .text+0xec4
00000000000012c0 R_AARCH64_ABS64          .text+0xed4
00000000000012c8 R_AARCH64_ABS64          .text+0xed8
00000000000012e0 R_AARCH64_ABS64          .text+0xeb0
00000000000012e8 R_AARCH64_ABS64          .text+0xec4
00000000000012f0 R_AARCH64_ABS64          .text+0xed4
00000000000012f8 R_AARCH64_ABS64          .text+0xed8
0000000000001310 R_AARCH64_ABS64          .text+0xa60
0000000000001318 R_AARCH64_ABS64          .text+0xa8c
0000000000001320 R_AARCH64_ABS64          .text+0xedc
0000000000001328 R_AARCH64_ABS64          .text+0xefc
0000000000001340 R_AARCH64_ABS64          .text+0xa60
0000000000001348 R_AARCH64_ABS64          .text+0xa8c
0000000000001350 R_AARCH64_ABS64          .text+0xedc
0000000000001358 R_AARCH64_ABS64          .text+0xefc
0000000000001370 R_AARCH64_ABS64          .text+0xa8c
0000000000001378 R_AARCH64_ABS64          .text+0xaa4
0000000000001380 R_AARCH64_ABS64          .text+0xb58
0000000000001388 R_AARCH64_ABS64          .text+0xb9c
00000000000013a0 R_AARCH64_ABS64          .text+0xb70
00000000000013a8 R_AARCH64_ABS64          .text+0xb84
00000000000013b0 R_AARCH64_ABS64          .text+0xb94
00000000000013b8 R_AARCH64_ABS64          .text+0xb98
00000000000013d0 R_AARCH64_ABS64          .text+0xb70
00000000000013d8 R_AARCH64_ABS64          .text+0xb84
00000000000013e0 R_AARCH64_ABS64          .text+0xb94
00000000000013e8 R_AARCH64_ABS64          .text+0xb98
0000000000001400 R_AARCH64_ABS64          .text+0xb70
0000000000001408 R_AARCH64_ABS64          .text+0xb84
0000000000001410 R_AARCH64_ABS64          .text+0xb94
0000000000001418 R_AARCH64_ABS64          .text+0xb98
0000000000001430 R_AARCH64_ABS64          .text+0xaa4
0000000000001438 R_AARCH64_ABS64          .text+0xab4
0000000000001440 R_AARCH64_ABS64          .text+0xab8
0000000000001448 R_AARCH64_ABS64          .text+0xabc
0000000000001450 R_AARCH64_ABS64          .text+0xb9c
0000000000001458 R_AARCH64_ABS64          .text+0xbac
0000000000001460 R_AARCH64_ABS64          .text+0xbb0
0000000000001468 R_AARCH64_ABS64          .text+0xbb4
0000000000001480 R_AARCH64_ABS64          .text+0xab4
0000000000001488 R_AARCH64_ABS64          .text+0xab8
0000000000001490 R_AARCH64_ABS64          .text+0xabc
0000000000001498 R_AARCH64_ABS64          .text+0xac8
00000000000014a0 R_AARCH64_ABS64          .text+0xacc
00000000000014a8 R_AARCH64_ABS64          .text+0xad0
00000000000014b0 R_AARCH64_ABS64          .text+0xbac
00000000000014b8 R_AARCH64_ABS64          .text+0xbb0
00000000000014c0 R_AARCH64_ABS64          .text+0xbb4
00000000000014c8 R_AARCH64_ABS64          .text+0xbbc
00000000000014d0 R_AARCH64_ABS64          .text+0xbc0
00000000000014d8 R_AARCH64_ABS64          .text+0xc4c
00000000000014e0 R_AARCH64_ABS64          .text+0xd44
00000000000014e8 R_AARCH64_ABS64          .text+0xd5c
00000000000014f0 R_AARCH64_ABS64          .text+0xf7c
00000000000014f8 R_AARCH64_ABS64          .text+0xf8c
0000000000001510 R_AARCH64_ABS64          .text+0xac4
0000000000001518 R_AARCH64_ABS64          .text+0xac8
0000000000001520 R_AARCH64_ABS64          .text+0xacc
0000000000001528 R_AARCH64_ABS64          .text+0xad0
0000000000001540 R_AARCH64_ABS64          .text+0xbc0
0000000000001548 R_AARCH64_ABS64          .text+0xc4c
0000000000001550 R_AARCH64_ABS64          .text+0xd44
0000000000001558 R_AARCH64_ABS64          .text+0xd5c
0000000000001560 R_AARCH64_ABS64          .text+0xf7c
0000000000001568 R_AARCH64_ABS64          .text+0xf8c
0000000000001580 R_AARCH64_ABS64          .text+0xbd0
0000000000001588 R_AARCH64_ABS64          .text+0xbfc
0000000000001590 R_AARCH64_ABS64          .text+0xf7c
0000000000001598 R_AARCH64_ABS64          .text+0xf80
00000000000015b0 R_AARCH64_ABS64          .text+0xbfc
00000000000015b8 R_AARCH64_ABS64          .text+0xc1c
00000000000015c0 R_AARCH64_ABS64          .text+0xd44
00000000000015c8 R_AARCH64_ABS64          .text+0xd4c
00000000000015d0 R_AARCH64_ABS64          .text+0xf80
00000000000015d8 R_AARCH64_ABS64          .text+0xf8c
00000000000015f0 R_AARCH64_ABS64          .text+0xc00
00000000000015f8 R_AARCH64_ABS64          .text+0xc10
0000000000001600 R_AARCH64_ABS64          .text+0xf80
0000000000001608 R_AARCH64_ABS64          .text+0xf8c
0000000000001620 R_AARCH64_ABS64          .text+0xc00
0000000000001628 R_AARCH64_ABS64          .text+0xc10
0000000000001630 R_AARCH64_ABS64          .text+0xf80
0000000000001638 R_AARCH64_ABS64          .text+0xf8c
0000000000001650 R_AARCH64_ABS64          .text+0xc1c
0000000000001658 R_AARCH64_ABS64          .text+0xc20
0000000000001660 R_AARCH64_ABS64          .text+0xc24
0000000000001668 R_AARCH64_ABS64          .text+0xc40
0000000000001670 R_AARCH64_ABS64          .text+0xd4c
0000000000001678 R_AARCH64_ABS64          .text+0xd50
0000000000001680 R_AARCH64_ABS64          .text+0xd54
0000000000001688 R_AARCH64_ABS64          .text+0xd5c
00000000000016a0 R_AARCH64_ABS64          .text+0xc1c
00000000000016a8 R_AARCH64_ABS64          .text+0xc20
00000000000016b0 R_AARCH64_ABS64          .text+0xc24
00000000000016b8 R_AARCH64_ABS64          .text+0xc38
00000000000016c0 R_AARCH64_ABS64          .text+0xd4c
00000000000016c8 R_AARCH64_ABS64          .text+0xd50
00000000000016d0 R_AARCH64_ABS64          .text+0xd54
00000000000016d8 R_AARCH64_ABS64          .text+0xd5c
00000000000016f0 R_AARCH64_ABS64          .text+0xc20
00000000000016f8 R_AARCH64_ABS64          .text+0xc24
0000000000001700 R_AARCH64_ABS64          .text+0xd50
0000000000001708 R_AARCH64_ABS64          .text+0xd54
0000000000001720 R_AARCH64_ABS64          .text+0xc20
0000000000001728 R_AARCH64_ABS64          .text+0xc24
0000000000001730 R_AARCH64_ABS64          .text+0xd50
0000000000001738 R_AARCH64_ABS64          .text+0xd54
0000000000001750 R_AARCH64_ABS64          .text+0xac8
0000000000001758 R_AARCH64_ABS64          .text+0xacc
0000000000001760 R_AARCH64_ABS64          .text+0xad0
0000000000001768 R_AARCH64_ABS64          .text+0xad8
0000000000001770 R_AARCH64_ABS64          .text+0xc54
0000000000001778 R_AARCH64_ABS64          .text+0xc58
0000000000001790 R_AARCH64_ABS64          .text+0x9a4
0000000000001798 R_AARCH64_ABS64          .text+0xc58
00000000000017a0 R_AARCH64_ABS64          .text+0xd44
00000000000017a8 R_AARCH64_ABS64          .text+0xd5c
00000000000017b0 R_AARCH64_ABS64          .text+0xe98
00000000000017b8 R_AARCH64_ABS64          .text+0xefc
00000000000017c0 R_AARCH64_ABS64          .text+0xf7c
00000000000017c8 R_AARCH64_ABS64          .text+0xf8c
00000000000017d0 R_AARCH64_ABS64          .text+0xf94
00000000000017d8 R_AARCH64_ABS64          .text+0xfa0
00000000000017e0 R_AARCH64_ABS64          .text+0xfb4
00000000000017e8 R_AARCH64_ABS64          .text+0xfe8
0000000000001800 R_AARCH64_ABS64          .text+0xc58
0000000000001808 R_AARCH64_ABS64          .text+0xc70
0000000000001810 R_AARCH64_ABS64          .text+0xdec
0000000000001818 R_AARCH64_ABS64          .text+0xe34
0000000000001830 R_AARCH64_ABS64          .text+0xe04
0000000000001838 R_AARCH64_ABS64          .text+0xe18
0000000000001840 R_AARCH64_ABS64          .text+0xe28
0000000000001848 R_AARCH64_ABS64          .text+0xe2c
0000000000001860 R_AARCH64_ABS64          .text+0xe04
0000000000001868 R_AARCH64_ABS64          .text+0xe18
0000000000001870 R_AARCH64_ABS64          .text+0xe28
0000000000001878 R_AARCH64_ABS64          .text+0xe2c
0000000000001890 R_AARCH64_ABS64          .text+0xe04
0000000000001898 R_AARCH64_ABS64          .text+0xe18
00000000000018a0 R_AARCH64_ABS64          .text+0xe28
00000000000018a8 R_AARCH64_ABS64          .text+0xe2c
00000000000018c0 R_AARCH64_ABS64          .text+0xcb4
00000000000018c8 R_AARCH64_ABS64          .text+0xccc
00000000000018d0 R_AARCH64_ABS64          .text+0xe34
00000000000018d8 R_AARCH64_ABS64          .text+0xe78
00000000000018f0 R_AARCH64_ABS64          .text+0xe4c
00000000000018f8 R_AARCH64_ABS64          .text+0xe60
0000000000001900 R_AARCH64_ABS64          .text+0xe70
0000000000001908 R_AARCH64_ABS64          .text+0xe74
0000000000001920 R_AARCH64_ABS64          .text+0xe4c
0000000000001928 R_AARCH64_ABS64          .text+0xe60
0000000000001930 R_AARCH64_ABS64          .text+0xe70
0000000000001938 R_AARCH64_ABS64          .text+0xe74
0000000000001950 R_AARCH64_ABS64          .text+0xe4c
0000000000001958 R_AARCH64_ABS64          .text+0xe60
0000000000001960 R_AARCH64_ABS64          .text+0xe70
0000000000001968 R_AARCH64_ABS64          .text+0xe74
0000000000001980 R_AARCH64_ABS64          .text+0xccc
0000000000001988 R_AARCH64_ABS64          .text+0xce0
0000000000001990 R_AARCH64_ABS64          .text+0xe78
0000000000001998 R_AARCH64_ABS64          .text+0xe8c
00000000000019b0 R_AARCH64_ABS64          .text+0xce0
00000000000019b8 R_AARCH64_ABS64          .text+0xd00
00000000000019c0 R_AARCH64_ABS64          .text+0xe8c
00000000000019c8 R_AARCH64_ABS64          .text+0xe98
00000000000019e0 R_AARCH64_ABS64          .text+0xd10
00000000000019e8 R_AARCH64_ABS64          .text+0xd28
00000000000019f0 R_AARCH64_ABS64          .text+0xd2c
00000000000019f8 R_AARCH64_ABS64          .text+0xd38
0000000000001a00 R_AARCH64_ABS64          .text+0xd98
0000000000001a08 R_AARCH64_ABS64          .text+0xda0
0000000000001a20 R_AARCH64_ABS64          .text+0xd14
0000000000001a28 R_AARCH64_ABS64          .text+0xd28
0000000000001a30 R_AARCH64_ABS64          .text+0xd2c
0000000000001a38 R_AARCH64_ABS64          .text+0xd34
0000000000001a50 R_AARCH64_ABS64          .text+0xd14
0000000000001a58 R_AARCH64_ABS64          .text+0xd28
0000000000001a60 R_AARCH64_ABS64          .text+0xd2c
0000000000001a68 R_AARCH64_ABS64          .text+0xd34
0000000000001a80 R_AARCH64_ABS64          .text+0xd34
0000000000001a88 R_AARCH64_ABS64          .text+0xd38
0000000000001a90 R_AARCH64_ABS64          .text+0xd98
0000000000001a98 R_AARCH64_ABS64          .text+0xda0
0000000000001ab0 R_AARCH64_ABS64          .text+0xd34
0000000000001ab8 R_AARCH64_ABS64          .text+0xd38
0000000000001ac0 R_AARCH64_ABS64          .text+0xd98
0000000000001ac8 R_AARCH64_ABS64          .text+0xda0
0000000000001ae0 R_AARCH64_ABS64          .text+0xd5c
0000000000001ae8 R_AARCH64_ABS64          .text+0xd74
0000000000001af0 R_AARCH64_ABS64          .text+0xefc
0000000000001af8 R_AARCH64_ABS64          .text+0xf44
0000000000001b10 R_AARCH64_ABS64          .text+0xf14
0000000000001b18 R_AARCH64_ABS64          .text+0xf28
0000000000001b20 R_AARCH64_ABS64          .text+0xf3c
0000000000001b28 R_AARCH64_ABS64          .text+0xf40
0000000000001b40 R_AARCH64_ABS64          .text+0xf14
0000000000001b48 R_AARCH64_ABS64          .text+0xf28
0000000000001b50 R_AARCH64_ABS64          .text+0xf3c
0000000000001b58 R_AARCH64_ABS64          .text+0xf40
0000000000001b70 R_AARCH64_ABS64          .text+0xf14
0000000000001b78 R_AARCH64_ABS64          .text+0xf28
0000000000001b80 R_AARCH64_ABS64          .text+0xf3c
0000000000001b88 R_AARCH64_ABS64          .text+0xf40
0000000000001ba0 R_AARCH64_ABS64          .text+0xca4
0000000000001ba8 R_AARCH64_ABS64          .text+0xd28
0000000000001bb0 R_AARCH64_ABS64          .text+0xd2c
0000000000001bb8 R_AARCH64_ABS64          .text+0xd38
0000000000001bc0 R_AARCH64_ABS64          .text+0xd5c
0000000000001bc8 R_AARCH64_ABS64          .text+0xda0
0000000000001bd0 R_AARCH64_ABS64          .text+0xdd8
0000000000001bd8 R_AARCH64_ABS64          .text+0xdec
0000000000001be0 R_AARCH64_ABS64          .text+0xe34
0000000000001be8 R_AARCH64_ABS64          .text+0xe98
0000000000001bf0 R_AARCH64_ABS64          .text+0xefc
0000000000001bf8 R_AARCH64_ABS64          .text+0xf4c
0000000000001c10 R_AARCH64_ABS64          .text+0xd28
0000000000001c18 R_AARCH64_ABS64          .text+0xd2c
0000000000001c20 R_AARCH64_ABS64          .text+0xd38
0000000000001c28 R_AARCH64_ABS64          .text+0xd40
0000000000001c30 R_AARCH64_ABS64          .text+0xda4
0000000000001c38 R_AARCH64_ABS64          .text+0xda8
0000000000001c40 R_AARCH64_ABS64          .text+0xf8c
0000000000001c48 R_AARCH64_ABS64          .text+0xf90
0000000000001c60 R_AARCH64_ABS64          .text+0xd28
0000000000001c68 R_AARCH64_ABS64          .text+0xd2c
0000000000001c70 R_AARCH64_ABS64          .text+0xd38
0000000000001c78 R_AARCH64_ABS64          .text+0xd40
0000000000001c80 R_AARCH64_ABS64          .text+0xda4
0000000000001c88 R_AARCH64_ABS64          .text+0xda8
0000000000001ca0 R_AARCH64_ABS64          .text._ZNSt3__16vectorIN4WAVM2IR13UntaggedValueENS_9allocatorIS3_EEEC2ESt16initializer_listIS3_E+0x20
0000000000001ca8 R_AARCH64_ABS64          .text._ZNSt3__16vectorIN4WAVM2IR13UntaggedValueENS_9allocatorIS3_EEEC2ESt16initializer_listIS3_E+0x3c
0000000000001cb0 R_AARCH64_ABS64          .text._ZNSt3__16vectorIN4WAVM2IR13UntaggedValueENS_9allocatorIS3_EEEC2ESt16initializer_listIS3_E+0x40
0000000000001cb8 R_AARCH64_ABS64          .text._ZNSt3__16vectorIN4WAVM2IR13UntaggedValueENS_9allocatorIS3_EEEC2ESt16initializer_listIS3_E+0x48
0000000000001cc0 R_AARCH64_ABS64          .text._ZNSt3__16vectorIN4WAVM2IR13UntaggedValueENS_9allocatorIS3_EEEC2ESt16initializer_listIS3_E+0x70
0000000000001cc8 R_AARCH64_ABS64          .text._ZNSt3__16vectorIN4WAVM2IR13UntaggedValueENS_9allocatorIS3_EEEC2ESt16initializer_listIS3_E+0x78
0000000000001ce0 R_AARCH64_ABS64          .text._ZNSt3__16vectorIN4WAVM2IR13UntaggedValueENS_9allocatorIS3_EEEC2ESt16initializer_listIS3_E+0x3c
0000000000001ce8 R_AARCH64_ABS64          .text._ZNSt3__16vectorIN4WAVM2IR13UntaggedValueENS_9allocatorIS3_EEEC2ESt16initializer_listIS3_E+0x40
0000000000001cf0 R_AARCH64_ABS64          .text._ZNSt3__16vectorIN4WAVM2IR13UntaggedValueENS_9allocatorIS3_EEEC2ESt16initializer_listIS3_E+0x48
0000000000001cf8 R_AARCH64_ABS64          .text._ZNSt3__16vectorIN4WAVM2IR13UntaggedValueENS_9allocatorIS3_EEEC2ESt16initializer_listIS3_E+0x60
0000000000001d10 R_AARCH64_ABS64          .text._ZNSt3__16vectorIN4WAVM2IR13UntaggedValueENS_9allocatorIS3_EEEC2ESt16initializer_listIS3_E+0x3c
0000000000001d18 R_AARCH64_ABS64          .text._ZNSt3__16vectorIN4WAVM2IR13UntaggedValueENS_9allocatorIS3_EEEC2ESt16initializer_listIS3_E+0x40
0000000000001d20 R_AARCH64_ABS64          .text._ZNSt3__16vectorIN4WAVM2IR13UntaggedValueENS_9allocatorIS3_EEEC2ESt16initializer_listIS3_E+0x48
0000000000001d28 R_AARCH64_ABS64          .text._ZNSt3__16vectorIN4WAVM2IR13UntaggedValueENS_9allocatorIS3_EEEC2ESt16initializer_listIS3_E+0x5c
0000000000001d40 R_AARCH64_ABS64          .text._ZNSt3__16vectorIN4WAVM2IR13UntaggedValueENS_9allocatorIS3_EEEC2ESt16initializer_listIS3_E+0x84
0000000000001d48 R_AARCH64_ABS64          .text._ZNSt3__16vectorIN4WAVM2IR13UntaggedValueENS_9allocatorIS3_EEEC2ESt16initializer_listIS3_E+0x88
0000000000001d50 R_AARCH64_ABS64          .text._ZNSt3__16vectorIN4WAVM2IR13UntaggedValueENS_9allocatorIS3_EEEC2ESt16initializer_listIS3_E+0x8c
0000000000001d58 R_AARCH64_ABS64          .text._ZNSt3__16vectorIN4WAVM2IR13UntaggedValueENS_9allocatorIS3_EEEC2ESt16initializer_listIS3_E+0x90
0000000000001d70 R_AARCH64_ABS64          .text._ZNSt3__16vectorIN4WAVM2IR13UntaggedValueENS_9allocatorIS3_EEEC2ESt16initializer_listIS3_E+0x84
0000000000001d78 R_AARCH64_ABS64          .text._ZNSt3__16vectorIN4WAVM2IR13UntaggedValueENS_9allocatorIS3_EEEC2ESt16initializer_listIS3_E+0x88
0000000000001d80 R_AARCH64_ABS64          .text._ZNSt3__16vectorIN4WAVM2IR13UntaggedValueENS_9allocatorIS3_EEEC2ESt16initializer_listIS3_E+0x8c
0000000000001d88 R_AARCH64_ABS64          .text._ZNSt3__16vectorIN4WAVM2IR13UntaggedValueENS_9allocatorIS3_EEEC2ESt16initializer_listIS3_E+0x90
0000000000001da0 R_AARCH64_ABS64          .text._ZNSt3__16vectorIN4WAVM2IR13UntaggedValueENS_9allocatorIS3_EEEC2ESt16initializer_listIS3_E+0x84
0000000000001da8 R_AARCH64_ABS64          .text._ZNSt3__16vectorIN4WAVM2IR13UntaggedValueENS_9allocatorIS3_EEEC2ESt16initializer_listIS3_E+0x88
0000000000001db0 R_AARCH64_ABS64          .text._ZNSt3__16vectorIN4WAVM2IR13UntaggedValueENS_9allocatorIS3_EEEC2ESt16initializer_listIS3_E+0x8c
0000000000001db8 R_AARCH64_ABS64          .text._ZNSt3__16vectorIN4WAVM2IR13UntaggedValueENS_9allocatorIS3_EEEC2ESt16initializer_listIS3_E+0x90
0000000000001dd0 R_AARCH64_ABS64          .text._ZNSt3__16vectorIN4WAVM2IR13UntaggedValueENS_9allocatorIS3_EEEC2ESt16initializer_listIS3_E+0x84
0000000000001dd8 R_AARCH64_ABS64          .text._ZNSt3__16vectorIN4WAVM2IR13UntaggedValueENS_9allocatorIS3_EEEC2ESt16initializer_listIS3_E+0x88
0000000000001de0 R_AARCH64_ABS64          .text._ZNSt3__16vectorIN4WAVM2IR13UntaggedValueENS_9allocatorIS3_EEEC2ESt16initializer_listIS3_E+0x8c
0000000000001de8 R_AARCH64_ABS64          .text._ZNSt3__16vectorIN4WAVM2IR13UntaggedValueENS_9allocatorIS3_EEEC2ESt16initializer_listIS3_E+0x90
0000000000001e00 R_AARCH64_ABS64          .text._ZNSt3__16vectorIN4WAVM2IR13UntaggedValueENS_9allocatorIS3_EEEC2ESt16initializer_listIS3_E+0x84
0000000000001e08 R_AARCH64_ABS64          .text._ZNSt3__16vectorIN4WAVM2IR13UntaggedValueENS_9allocatorIS3_EEEC2ESt16initializer_listIS3_E+0x88
0000000000001e10 R_AARCH64_ABS64          .text._ZNSt3__16vectorIN4WAVM2IR13UntaggedValueENS_9allocatorIS3_EEEC2ESt16initializer_listIS3_E+0x8c
0000000000001e18 R_AARCH64_ABS64          .text._ZNSt3__16vectorIN4WAVM2IR13UntaggedValueENS_9allocatorIS3_EEEC2ESt16initializer_listIS3_E+0x90
0000000000001e30 R_AARCH64_ABS64          .text+0x1048
0000000000001e38 R_AARCH64_ABS64          .text+0x1050
0000000000001e40 R_AARCH64_ABS64          .text+0x10ec
0000000000001e48 R_AARCH64_ABS64          .text+0x113c
0000000000001e60 R_AARCH64_ABS64          .text+0x1048
0000000000001e68 R_AARCH64_ABS64          .text+0x1050
0000000000001e70 R_AARCH64_ABS64          .text+0x10ec
0000000000001e78 R_AARCH64_ABS64          .text+0x113c
0000000000001e90 R_AARCH64_ABS64          .text+0x1164
0000000000001e98 R_AARCH64_ABS64          .text+0x11a4
0000000000001ea0 R_AARCH64_ABS64          .text+0x11c4
0000000000001ea8 R_AARCH64_ABS64          .text+0x11d0
0000000000001ec0 R_AARCH64_ABS64          .text+0x1154
0000000000001ec8 R_AARCH64_ABS64          .text+0x1158
0000000000001ed0 R_AARCH64_ABS64          .text+0x115c
0000000000001ed8 R_AARCH64_ABS64          .text+0x1164
0000000000001ee0 R_AARCH64_ABS64          .text+0x11a4
0000000000001ee8 R_AARCH64_ABS64          .text+0x11a8
0000000000001ef0 R_AARCH64_ABS64          .text+0x11bc
0000000000001ef8 R_AARCH64_ABS64          .text+0x11c0
0000000000001f10 R_AARCH64_ABS64          .text+0x1154
0000000000001f18 R_AARCH64_ABS64          .text+0x1158
0000000000001f20 R_AARCH64_ABS64          .text+0x115c
0000000000001f28 R_AARCH64_ABS64          .text+0x1164
0000000000001f30 R_AARCH64_ABS64          .text+0x11a4
0000000000001f38 R_AARCH64_ABS64          .text+0x11a8
0000000000001f50 R_AARCH64_ABS64          .text+0x12e8
0000000000001f58 R_AARCH64_ABS64          .text+0x12f4
0000000000001f60 R_AARCH64_ABS64          .text+0x1318
0000000000001f68 R_AARCH64_ABS64          .text+0x131c
0000000000001f80 R_AARCH64_ABS64          .text._ZN4WAVM7HashMapImP8WaitListNS_17DefaultHashPolicyImEEE3setIJRS2_EEES7_RKmDpOT_+0x14
0000000000001f88 R_AARCH64_ABS64          .text._ZN4WAVM7HashMapImP8WaitListNS_17DefaultHashPolicyImEEE3setIJRS2_EEES7_RKmDpOT_+0x90
0000000000001f90 R_AARCH64_ABS64          .text._ZN4WAVM7HashMapImP8WaitListNS_17DefaultHashPolicyImEEE3setIJRS2_EEES7_RKmDpOT_+0x94
0000000000001f98 R_AARCH64_ABS64          .text._ZN4WAVM7HashMapImP8WaitListNS_17DefaultHashPolicyImEEE3setIJRS2_EEES7_RKmDpOT_+0xb4
0000000000001fb0 R_AARCH64_ABS64          .text._ZN4WAVM7HashMapImP8WaitListNS_17DefaultHashPolicyImEEE3setIJRS2_EEES7_RKmDpOT_+0x38
0000000000001fb8 R_AARCH64_ABS64          .text._ZN4WAVM7HashMapImP8WaitListNS_17DefaultHashPolicyImEEE3setIJRS2_EEES7_RKmDpOT_+0x90
0000000000001fc0 R_AARCH64_ABS64          .text._ZN4WAVM7HashMapImP8WaitListNS_17DefaultHashPolicyImEEE3setIJRS2_EEES7_RKmDpOT_+0x94
0000000000001fc8 R_AARCH64_ABS64          .text._ZN4WAVM7HashMapImP8WaitListNS_17DefaultHashPolicyImEEE3setIJRS2_EEES7_RKmDpOT_+0xb4
0000000000001fe0 R_AARCH64_ABS64          .text._ZN4WAVM7HashMapImP8WaitListNS_17DefaultHashPolicyImEEE3setIJRS2_EEES7_RKmDpOT_+0x38
0000000000001fe8 R_AARCH64_ABS64          .text._ZN4WAVM7HashMapImP8WaitListNS_17DefaultHashPolicyImEEE3setIJRS2_EEES7_RKmDpOT_+0x90
0000000000001ff0 R_AARCH64_ABS64          .text._ZN4WAVM7HashMapImP8WaitListNS_17DefaultHashPolicyImEEE3setIJRS2_EEES7_RKmDpOT_+0x94
0000000000001ff8 R_AARCH64_ABS64          .text._ZN4WAVM7HashMapImP8WaitListNS_17DefaultHashPolicyImEEE3setIJRS2_EEES7_RKmDpOT_+0xb4
0000000000002010 R_AARCH64_ABS64          .text._ZN4WAVM7HashMapImP8WaitListNS_17DefaultHashPolicyImEEE3setIJRS2_EEES7_RKmDpOT_+0x90
0000000000002018 R_AARCH64_ABS64          .text._ZN4WAVM7HashMapImP8WaitListNS_17DefaultHashPolicyImEEE3setIJRS2_EEES7_RKmDpOT_+0x94
0000000000002020 R_AARCH64_ABS64          .text._ZN4WAVM7HashMapImP8WaitListNS_17DefaultHashPolicyImEEE3setIJRS2_EEES7_RKmDpOT_+0xb4
0000000000002028 R_AARCH64_ABS64          .text._ZN4WAVM7HashMapImP8WaitListNS_17DefaultHashPolicyImEEE3setIJRS2_EEES7_RKmDpOT_+0xb8
0000000000002030 R_AARCH64_ABS64          .text._ZN4WAVM7HashMapImP8WaitListNS_17DefaultHashPolicyImEEE3setIJRS2_EEES7_RKmDpOT_+0xbc
0000000000002038 R_AARCH64_ABS64          .text._ZN4WAVM7HashMapImP8WaitListNS_17DefaultHashPolicyImEEE3setIJRS2_EEES7_RKmDpOT_+0x22c
0000000000002050 R_AARCH64_ABS64          .text._ZN4WAVM7HashMapImP8WaitListNS_17DefaultHashPolicyImEEE3setIJRS2_EEES7_RKmDpOT_+0xbc
0000000000002058 R_AARCH64_ABS64          .text._ZN4WAVM7HashMapImP8WaitListNS_17DefaultHashPolicyImEEE3setIJRS2_EEES7_RKmDpOT_+0xec
0000000000002060 R_AARCH64_ABS64          .text._ZN4WAVM7HashMapImP8WaitListNS_17DefaultHashPolicyImEEE3setIJRS2_EEES7_RKmDpOT_+0xf0
0000000000002068 R_AARCH64_ABS64          .text._ZN4WAVM7HashMapImP8WaitListNS_17DefaultHashPolicyImEEE3setIJRS2_EEES7_RKmDpOT_+0x100
0000000000002080 R_AARCH64_ABS64          .text._ZN4WAVM7HashMapImP8WaitListNS_17DefaultHashPolicyImEEE3setIJRS2_EEES7_RKmDpOT_+0xc4
0000000000002088 R_AARCH64_ABS64          .text._ZN4WAVM7HashMapImP8WaitListNS_17DefaultHashPolicyImEEE3setIJRS2_EEES7_RKmDpOT_+0xec
0000000000002090 R_AARCH64_ABS64          .text._ZN4WAVM7HashMapImP8WaitListNS_17DefaultHashPolicyImEEE3setIJRS2_EEES7_RKmDpOT_+0xf0
0000000000002098 R_AARCH64_ABS64          .text._ZN4WAVM7HashMapImP8WaitListNS_17DefaultHashPolicyImEEE3setIJRS2_EEES7_RKmDpOT_+0x100
00000000000020b0 R_AARCH64_ABS64          .text._ZN4WAVM7HashMapImP8WaitListNS_17DefaultHashPolicyImEEE3setIJRS2_EEES7_RKmDpOT_+0xec
00000000000020b8 R_AARCH64_ABS64          .text._ZN4WAVM7HashMapImP8WaitListNS_17DefaultHashPolicyImEEE3setIJRS2_EEES7_RKmDpOT_+0xf0
00000000000020c0 R_AARCH64_ABS64          .text._ZN4WAVM7HashMapImP8WaitListNS_17DefaultHashPolicyImEEE3setIJRS2_EEES7_RKmDpOT_+0x100
00000000000020c8 R_AARCH64_ABS64          .text._ZN4WAVM7HashMapImP8WaitListNS_17DefaultHashPolicyImEEE3setIJRS2_EEES7_RKmDpOT_+0x104
00000000000020e0 R_AARCH64_ABS64          .text._ZN4WAVM7HashMapImP8WaitListNS_17DefaultHashPolicyImEEE3setIJRS2_EEES7_RKmDpOT_+0x1ac
00000000000020e8 R_AARCH64_ABS64          .text._ZN4WAVM7HashMapImP8WaitListNS_17DefaultHashPolicyImEEE3setIJRS2_EEES7_RKmDpOT_+0x1b4
00000000000020f0 R_AARCH64_ABS64          .text._ZN4WAVM7HashMapImP8WaitListNS_17DefaultHashPolicyImEEE3setIJRS2_EEES7_RKmDpOT_+0x1bc
00000000000020f8 R_AARCH64_ABS64          .text._ZN4WAVM7HashMapImP8WaitListNS_17DefaultHashPolicyImEEE3setIJRS2_EEES7_RKmDpOT_+0x1d0
0000000000002110 R_AARCH64_ABS64          .text._ZN4WAVM7HashMapImP8WaitListNS_17DefaultHashPolicyImEEE3setIJRS2_EEES7_RKmDpOT_+0x1f8
0000000000002118 R_AARCH64_ABS64          .text._ZN4WAVM7HashMapImP8WaitListNS_17DefaultHashPolicyImEEE3setIJRS2_EEES7_RKmDpOT_+0x1fc
0000000000002120 R_AARCH64_ABS64          .text._ZN4WAVM7HashMapImP8WaitListNS_17DefaultHashPolicyImEEE3setIJRS2_EEES7_RKmDpOT_+0x208
0000000000002128 R_AARCH64_ABS64          .text._ZN4WAVM7HashMapImP8WaitListNS_17DefaultHashPolicyImEEE3setIJRS2_EEES7_RKmDpOT_+0x218
0000000000002140 R_AARCH64_ABS64          .text._ZN4WAVM7HashMapImP8WaitListNS_17DefaultHashPolicyImEEE3setIJRS2_EEES7_RKmDpOT_+0x120
0000000000002148 R_AARCH64_ABS64          .text._ZN4WAVM7HashMapImP8WaitListNS_17DefaultHashPolicyImEEE3setIJRS2_EEES7_RKmDpOT_+0x134
0000000000002150 R_AARCH64_ABS64          .text._ZN4WAVM7HashMapImP8WaitListNS_17DefaultHashPolicyImEEE3setIJRS2_EEES7_RKmDpOT_+0x16c
0000000000002158 R_AARCH64_ABS64          .text._ZN4WAVM7HashMapImP8WaitListNS_17DefaultHashPolicyImEEE3setIJRS2_EEES7_RKmDpOT_+0x218
0000000000002170 R_AARCH64_ABS64          .text._ZN4WAVM9HashTableImNS_11HashMapPairImP8WaitListEENS_7HashMapImS3_NS_17DefaultHashPolicyImEEE15HashTablePolicyENS_27DefaultHashTableAllocPolicyEE6resizeEm+0x168
0000000000002178 R_AARCH64_ABS64          .text._ZN4WAVM9HashTableImNS_11HashMapPairImP8WaitListEENS_7HashMapImS3_NS_17DefaultHashPolicyImEEE15HashTablePolicyENS_27DefaultHashTableAllocPolicyEE6resizeEm+0x170
0000000000002180 R_AARCH64_ABS64          .text._ZN4WAVM9HashTableImNS_11HashMapPairImP8WaitListEENS_7HashMapImS3_NS_17DefaultHashPolicyImEEE15HashTablePolicyENS_27DefaultHashTableAllocPolicyEE6resizeEm+0x178
0000000000002188 R_AARCH64_ABS64          .text._ZN4WAVM9HashTableImNS_11HashMapPairImP8WaitListEENS_7HashMapImS3_NS_17DefaultHashPolicyImEEE15HashTablePolicyENS_27DefaultHashTableAllocPolicyEE6resizeEm+0x18c
00000000000021a0 R_AARCH64_ABS64          .text._ZN4WAVM9HashTableImNS_11HashMapPairImP8WaitListEENS_7HashMapImS3_NS_17DefaultHashPolicyImEEE15HashTablePolicyENS_27DefaultHashTableAllocPolicyEE6resizeEm+0x1b4
00000000000021a8 R_AARCH64_ABS64          .text._ZN4WAVM9HashTableImNS_11HashMapPairImP8WaitListEENS_7HashMapImS3_NS_17DefaultHashPolicyImEEE15HashTablePolicyENS_27DefaultHashTableAllocPolicyEE6resizeEm+0x1b8
00000000000021b0 R_AARCH64_ABS64          .text._ZN4WAVM9HashTableImNS_11HashMapPairImP8WaitListEENS_7HashMapImS3_NS_17DefaultHashPolicyImEEE15HashTablePolicyENS_27DefaultHashTableAllocPolicyEE6resizeEm+0x1c4
00000000000021b8 R_AARCH64_ABS64          .text._ZN4WAVM9HashTableImNS_11HashMapPairImP8WaitListEENS_7HashMapImS3_NS_17DefaultHashPolicyImEEE15HashTablePolicyENS_27DefaultHashTableAllocPolicyEE6resizeEm+0x1d8
00000000000021d0 R_AARCH64_ABS64          .text._ZN4WAVM9HashTableImNS_11HashMapPairImP8WaitListEENS_7HashMapImS3_NS_17DefaultHashPolicyImEEE15HashTablePolicyENS_27DefaultHashTableAllocPolicyEE6resizeEm+0xdc
00000000000021d8 R_AARCH64_ABS64          .text._ZN4WAVM9HashTableImNS_11HashMapPairImP8WaitListEENS_7HashMapImS3_NS_17DefaultHashPolicyImEEE15HashTablePolicyENS_27DefaultHashTableAllocPolicyEE6resizeEm+0xf0
00000000000021e0 R_AARCH64_ABS64          .text._ZN4WAVM9HashTableImNS_11HashMapPairImP8WaitListEENS_7HashMapImS3_NS_17DefaultHashPolicyImEEE15HashTablePolicyENS_27DefaultHashTableAllocPolicyEE6resizeEm+0x128
00000000000021e8 R_AARCH64_ABS64          .text._ZN4WAVM9HashTableImNS_11HashMapPairImP8WaitListEENS_7HashMapImS3_NS_17DefaultHashPolicyImEEE15HashTablePolicyENS_27DefaultHashTableAllocPolicyEE6resizeEm+0x1d8
0000000000002200 R_AARCH64_ABS64          .text._ZN4WAVM9HashTableImNS_11HashMapPairImP8WaitListEENS_7HashMapImS3_NS_17DefaultHashPolicyImEEE15HashTablePolicyENS_27DefaultHashTableAllocPolicyEE6resizeEm+0xa0
0000000000002208 R_AARCH64_ABS64          .text._ZN4WAVM9HashTableImNS_11HashMapPairImP8WaitListEENS_7HashMapImS3_NS_17DefaultHashPolicyImEEE15HashTablePolicyENS_27DefaultHashTableAllocPolicyEE6resizeEm+0xb4
0000000000002210 R_AARCH64_ABS64          .text._ZN4WAVM9HashTableImNS_11HashMapPairImP8WaitListEENS_7HashMapImS3_NS_17DefaultHashPolicyImEEE15HashTablePolicyENS_27DefaultHashTableAllocPolicyEE6resizeEm+0xd0
0000000000002218 R_AARCH64_ABS64          .text._ZN4WAVM9HashTableImNS_11HashMapPairImP8WaitListEENS_7HashMapImS3_NS_17DefaultHashPolicyImEEE15HashTablePolicyENS_27DefaultHashTableAllocPolicyEE6resizeEm+0x1d8
0000000000002230 R_AARCH64_ABS64          .text._ZN4WAVM9HashTableImNS_11HashMapPairImP8WaitListEENS_7HashMapImS3_NS_17DefaultHashPolicyImEEE15HashTablePolicyENS_27DefaultHashTableAllocPolicyEE6removeEmRKm+0x8
0000000000002238 R_AARCH64_ABS64          .text._ZN4WAVM9HashTableImNS_11HashMapPairImP8WaitListEENS_7HashMapImS3_NS_17DefaultHashPolicyImEEE15HashTablePolicyENS_27DefaultHashTableAllocPolicyEE6removeEmRKm+0x10
0000000000002240 R_AARCH64_ABS64          .text._ZN4WAVM9HashTableImNS_11HashMapPairImP8WaitListEENS_7HashMapImS3_NS_17DefaultHashPolicyImEEE15HashTablePolicyENS_27DefaultHashTableAllocPolicyEE6removeEmRKm+0x2c
0000000000002248 R_AARCH64_ABS64          .text._ZN4WAVM9HashTableImNS_11HashMapPairImP8WaitListEENS_7HashMapImS3_NS_17DefaultHashPolicyImEEE15HashTablePolicyENS_27DefaultHashTableAllocPolicyEE6removeEmRKm+0x70
0000000000002260 R_AARCH64_ABS64          .text._ZN4WAVM9HashTableImNS_11HashMapPairImP8WaitListEENS_7HashMapImS3_NS_17DefaultHashPolicyImEEE15HashTablePolicyENS_27DefaultHashTableAllocPolicyEE6removeEmRKm+0x70
0000000000002268 R_AARCH64_ABS64          .text._ZN4WAVM9HashTableImNS_11HashMapPairImP8WaitListEENS_7HashMapImS3_NS_17DefaultHashPolicyImEEE15HashTablePolicyENS_27DefaultHashTableAllocPolicyEE6removeEmRKm+0xdc
0000000000002270 R_AARCH64_ABS64          .text._ZN4WAVM9HashTableImNS_11HashMapPairImP8WaitListEENS_7HashMapImS3_NS_17DefaultHashPolicyImEEE15HashTablePolicyENS_27DefaultHashTableAllocPolicyEE6removeEmRKm+0x104
0000000000002278 R_AARCH64_ABS64          .text._ZN4WAVM9HashTableImNS_11HashMapPairImP8WaitListEENS_7HashMapImS3_NS_17DefaultHashPolicyImEEE15HashTablePolicyENS_27DefaultHashTableAllocPolicyEE6removeEmRKm+0x118
0000000000002290 R_AARCH64_ABS64          .text._ZN4WAVM9HashTableImNS_11HashMapPairImP8WaitListEENS_7HashMapImS3_NS_17DefaultHashPolicyImEEE15HashTablePolicyENS_27DefaultHashTableAllocPolicyEE6removeEmRKm+0x90
0000000000002298 R_AARCH64_ABS64          .text._ZN4WAVM9HashTableImNS_11HashMapPairImP8WaitListEENS_7HashMapImS3_NS_17DefaultHashPolicyImEEE15HashTablePolicyENS_27DefaultHashTableAllocPolicyEE6removeEmRKm+0xb8
00000000000022a0 R_AARCH64_ABS64          .text._ZN4WAVM9HashTableImNS_11HashMapPairImP8WaitListEENS_7HashMapImS3_NS_17DefaultHashPolicyImEEE15HashTablePolicyENS_27DefaultHashTableAllocPolicyEE6removeEmRKm+0x110
00000000000022a8 R_AARCH64_ABS64          .text._ZN4WAVM9HashTableImNS_11HashMapPairImP8WaitListEENS_7HashMapImS3_NS_17DefaultHashPolicyImEEE15HashTablePolicyENS_27DefaultHashTableAllocPolicyEE6removeEmRKm+0x114
00000000000022c0 R_AARCH64_ABS64          .text._ZN4WAVM9HashTableImNS_11HashMapPairImP8WaitListEENS_7HashMapImS3_NS_17DefaultHashPolicyImEEE15HashTablePolicyENS_27DefaultHashTableAllocPolicyEE6removeEmRKm+0x70
00000000000022c8 R_AARCH64_ABS64          .text._ZN4WAVM9HashTableImNS_11HashMapPairImP8WaitListEENS_7HashMapImS3_NS_17DefaultHashPolicyImEEE15HashTablePolicyENS_27DefaultHashTableAllocPolicyEE6removeEmRKm+0xdc
00000000000022d0 R_AARCH64_ABS64          .text._ZN4WAVM9HashTableImNS_11HashMapPairImP8WaitListEENS_7HashMapImS3_NS_17DefaultHashPolicyImEEE15HashTablePolicyENS_27DefaultHashTableAllocPolicyEE6removeEmRKm+0x104
00000000000022d8 R_AARCH64_ABS64          .text._ZN4WAVM9HashTableImNS_11HashMapPairImP8WaitListEENS_7HashMapImS3_NS_17DefaultHashPolicyImEEE15HashTablePolicyENS_27DefaultHashTableAllocPolicyEE6removeEmRKm+0x118
00000000000022f0 R_AARCH64_ABS64          .text._ZN4WAVM9HashTableImNS_11HashMapPairImP8WaitListEENS_7HashMapImS3_NS_17DefaultHashPolicyImEEE15HashTablePolicyENS_27DefaultHashTableAllocPolicyEE6removeEmRKm+0x128
00000000000022f8 R_AARCH64_ABS64          .text._ZN4WAVM9HashTableImNS_11HashMapPairImP8WaitListEENS_7HashMapImS3_NS_17DefaultHashPolicyImEEE15HashTablePolicyENS_27DefaultHashTableAllocPolicyEE6removeEmRKm+0x130
0000000000002300 R_AARCH64_ABS64          .text._ZN4WAVM9HashTableImNS_11HashMapPairImP8WaitListEENS_7HashMapImS3_NS_17DefaultHashPolicyImEEE15HashTablePolicyENS_27DefaultHashTableAllocPolicyEE6removeEmRKm+0x138
0000000000002308 R_AARCH64_ABS64          .text._ZN4WAVM9HashTableImNS_11HashMapPairImP8WaitListEENS_7HashMapImS3_NS_17DefaultHashPolicyImEEE15HashTablePolicyENS_27DefaultHashTableAllocPolicyEE6removeEmRKm+0x178
0000000000002320 R_AARCH64_ABS64          .text._ZN4WAVM9HashTableImNS_11HashMapPairImP8WaitListEENS_7HashMapImS3_NS_17DefaultHashPolicyImEEE15HashTablePolicyENS_27DefaultHashTableAllocPolicyEE6removeEmRKm+0x128
0000000000002328 R_AARCH64_ABS64          .text._ZN4WAVM9HashTableImNS_11HashMapPairImP8WaitListEENS_7HashMapImS3_NS_17DefaultHashPolicyImEEE15HashTablePolicyENS_27DefaultHashTableAllocPolicyEE6removeEmRKm+0x130
0000000000002330 R_AARCH64_ABS64          .text._ZN4WAVM9HashTableImNS_11HashMapPairImP8WaitListEENS_7HashMapImS3_NS_17DefaultHashPolicyImEEE15HashTablePolicyENS_27DefaultHashTableAllocPolicyEE6removeEmRKm+0x138
0000000000002338 R_AARCH64_ABS64          .text._ZN4WAVM9HashTableImNS_11HashMapPairImP8WaitListEENS_7HashMapImS3_NS_17DefaultHashPolicyImEEE15HashTablePolicyENS_27DefaultHashTableAllocPolicyEE6removeEmRKm+0x140
0000000000002340 R_AARCH64_ABS64          .text._ZN4WAVM9HashTableImNS_11HashMapPairImP8WaitListEENS_7HashMapImS3_NS_17DefaultHashPolicyImEEE15HashTablePolicyENS_27DefaultHashTableAllocPolicyEE6removeEmRKm+0x144
0000000000002348 R_AARCH64_ABS64          .text._ZN4WAVM9HashTableImNS_11HashMapPairImP8WaitListEENS_7HashMapImS3_NS_17DefaultHashPolicyImEEE15HashTablePolicyENS_27DefaultHashTableAllocPolicyEE6removeEmRKm+0x14c
0000000000002350 R_AARCH64_ABS64          .text._ZN4WAVM9HashTableImNS_11HashMapPairImP8WaitListEENS_7HashMapImS3_NS_17DefaultHashPolicyImEEE15HashTablePolicyENS_27DefaultHashTableAllocPolicyEE6removeEmRKm+0x150
0000000000002358 R_AARCH64_ABS64          .text._ZN4WAVM9HashTableImNS_11HashMapPairImP8WaitListEENS_7HashMapImS3_NS_17DefaultHashPolicyImEEE15HashTablePolicyENS_27DefaultHashTableAllocPolicyEE6removeEmRKm+0x154
0000000000002370 R_AARCH64_ABS64          .text._ZN4WAVM9HashTableImNS_11HashMapPairImP8WaitListEENS_7HashMapImS3_NS_17DefaultHashPolicyImEEE15HashTablePolicyENS_27DefaultHashTableAllocPolicyEE6removeEmRKm+0x14c
0000000000002378 R_AARCH64_ABS64          .text._ZN4WAVM9HashTableImNS_11HashMapPairImP8WaitListEENS_7HashMapImS3_NS_17DefaultHashPolicyImEEE15HashTablePolicyENS_27DefaultHashTableAllocPolicyEE6removeEmRKm+0x150
0000000000002380 R_AARCH64_ABS64          .text._ZN4WAVM9HashTableImNS_11HashMapPairImP8WaitListEENS_7HashMapImS3_NS_17DefaultHashPolicyImEEE15HashTablePolicyENS_27DefaultHashTableAllocPolicyEE6removeEmRKm+0x154
0000000000002388 R_AARCH64_ABS64          .text._ZN4WAVM9HashTableImNS_11HashMapPairImP8WaitListEENS_7HashMapImS3_NS_17DefaultHashPolicyImEEE15HashTablePolicyENS_27DefaultHashTableAllocPolicyEE6removeEmRKm+0x164
00000000000023a0 R_AARCH64_ABS64          .text._ZN4WAVM9HashTableImNS_11HashMapPairImP8WaitListEENS_7HashMapImS3_NS_17DefaultHashPolicyImEEE15HashTablePolicyENS_27DefaultHashTableAllocPolicyEE6removeEmRKm+0x70
00000000000023a8 R_AARCH64_ABS64          .text._ZN4WAVM9HashTableImNS_11HashMapPairImP8WaitListEENS_7HashMapImS3_NS_17DefaultHashPolicyImEEE15HashTablePolicyENS_27DefaultHashTableAllocPolicyEE6removeEmRKm+0xdc
00000000000023b0 R_AARCH64_ABS64          .text._ZN4WAVM9HashTableImNS_11HashMapPairImP8WaitListEENS_7HashMapImS3_NS_17DefaultHashPolicyImEEE15HashTablePolicyENS_27DefaultHashTableAllocPolicyEE6removeEmRKm+0x104
00000000000023b8 R_AARCH64_ABS64          .text._ZN4WAVM9HashTableImNS_11HashMapPairImP8WaitListEENS_7HashMapImS3_NS_17DefaultHashPolicyImEEE15HashTablePolicyENS_27DefaultHashTableAllocPolicyEE6removeEmRKm+0x190
00000000000023d0 R_AARCH64_ABS64          .text+0x1338
00000000000023d8 R_AARCH64_ABS64          .text+0x133c
00000000000023e0 R_AARCH64_ABS64          .text+0x1340
00000000000023e8 R_AARCH64_ABS64          .text+0x1350
0000000000002400 R_AARCH64_ABS64          .text+0x1338
0000000000002408 R_AARCH64_ABS64          .text+0x133c
0000000000002410 R_AARCH64_ABS64          .text+0x134c
0000000000002418 R_AARCH64_ABS64          .text+0x1350
0000000000002430 R_AARCH64_ABS64          .text+0x1338
0000000000002438 R_AARCH64_ABS64          .text+0x133c
0000000000002440 R_AARCH64_ABS64          .text+0x134c
0000000000002448 R_AARCH64_ABS64          .text+0x1350
0000000000002460 R_AARCH64_ABS64          .text+0x1338
0000000000002468 R_AARCH64_ABS64          .text+0x133c
0000000000002470 R_AARCH64_ABS64          .text+0x134c
0000000000002478 R_AARCH64_ABS64          .text+0x1350
0000000000002490 R_AARCH64_ABS64          .text+0x13a4
0000000000002498 R_AARCH64_ABS64          .text+0x13a8
00000000000024a0 R_AARCH64_ABS64          .text+0x13ac
00000000000024a8 R_AARCH64_ABS64          .text+0x13bc
00000000000024c0 R_AARCH64_ABS64          .text+0x13a4
00000000000024c8 R_AARCH64_ABS64          .text+0x13a8
00000000000024d0 R_AARCH64_ABS64          .text+0x13b8
00000000000024d8 R_AARCH64_ABS64          .text+0x13bc
00000000000024f0 R_AARCH64_ABS64          .text+0x13a4
00000000000024f8 R_AARCH64_ABS64          .text+0x13a8
0000000000002500 R_AARCH64_ABS64          .text+0x13b8
0000000000002508 R_AARCH64_ABS64          .text+0x13bc
0000000000002520 R_AARCH64_ABS64          .text+0x13a4
0000000000002528 R_AARCH64_ABS64          .text+0x13a8
0000000000002530 R_AARCH64_ABS64          .text+0x13b8
0000000000002538 R_AARCH64_ABS64          .text+0x13bc
0000000000002550 R_AARCH64_ABS64          .text+0x145c
0000000000002558 R_AARCH64_ABS64          .text+0x14cc
0000000000002560 R_AARCH64_ABS64          .text+0x1620
0000000000002568 R_AARCH64_ABS64          .text+0x1654
0000000000002580 R_AARCH64_ABS64          .text+0x145c
0000000000002588 R_AARCH64_ABS64          .text+0x146c
0000000000002590 R_AARCH64_ABS64          .text+0x1620
0000000000002598 R_AARCH64_ABS64          .text+0x1654
00000000000025b0 R_AARCH64_ABS64          .text+0x146c
00000000000025b8 R_AARCH64_ABS64          .text+0x14ac
00000000000025c0 R_AARCH64_ABS64          .text+0x14b4
00000000000025c8 R_AARCH64_ABS64          .text+0x14b8
00000000000025e0 R_AARCH64_ABS64          .text+0x14a0
00000000000025e8 R_AARCH64_ABS64          .text+0x14ac
00000000000025f0 R_AARCH64_ABS64          .text+0x14b4
00000000000025f8 R_AARCH64_ABS64          .text+0x14b8
0000000000002610 R_AARCH64_ABS64          .text+0x14cc
0000000000002618 R_AARCH64_ABS64          .text+0x1534
0000000000002620 R_AARCH64_ABS64          .text+0x1654
0000000000002628 R_AARCH64_ABS64          .text+0x1688
0000000000002640 R_AARCH64_ABS64          .text+0x14cc
0000000000002648 R_AARCH64_ABS64          .text+0x14d8
0000000000002650 R_AARCH64_ABS64          .text+0x1654
0000000000002658 R_AARCH64_ABS64          .text+0x1688
0000000000002670 R_AARCH64_ABS64          .text+0x14d8
0000000000002678 R_AARCH64_ABS64          .text+0x1514
0000000000002680 R_AARCH64_ABS64          .text+0x151c
0000000000002688 R_AARCH64_ABS64          .text+0x1520
00000000000026a0 R_AARCH64_ABS64          .text+0x1508
00000000000026a8 R_AARCH64_ABS64          .text+0x1514
00000000000026b0 R_AARCH64_ABS64          .text+0x151c
00000000000026b8 R_AARCH64_ABS64          .text+0x1520
00000000000026d0 R_AARCH64_ABS64          .text+0x1534
00000000000026d8 R_AARCH64_ABS64          .text+0x15a0
00000000000026e0 R_AARCH64_ABS64          .text+0x1688
00000000000026e8 R_AARCH64_ABS64          .text+0x16bc
0000000000002700 R_AARCH64_ABS64          .text+0x1534
0000000000002708 R_AARCH64_ABS64          .text+0x153c
0000000000002710 R_AARCH64_ABS64          .text+0x1688
0000000000002718 R_AARCH64_ABS64          .text+0x16bc
0000000000002730 R_AARCH64_ABS64          .text+0x153c
0000000000002738 R_AARCH64_ABS64          .text+0x1580
0000000000002740 R_AARCH64_ABS64          .text+0x1588
0000000000002748 R_AARCH64_ABS64          .text+0x158c
0000000000002760 R_AARCH64_ABS64          .text+0x1574
0000000000002768 R_AARCH64_ABS64          .text+0x1580
0000000000002770 R_AARCH64_ABS64          .text+0x1588
0000000000002778 R_AARCH64_ABS64          .text+0x158c
0000000000002790 R_AARCH64_ABS64          .text+0x15a0
0000000000002798 R_AARCH64_ABS64          .text+0x1620
00000000000027a0 R_AARCH64_ABS64          .text+0x16bc
00000000000027a8 R_AARCH64_ABS64          .text+0x16f0
00000000000027c0 R_AARCH64_ABS64          .text+0x15a0
00000000000027c8 R_AARCH64_ABS64          .text+0x15ac
00000000000027d0 R_AARCH64_ABS64          .text+0x16bc
00000000000027d8 R_AARCH64_ABS64          .text+0x16f0
00000000000027f0 R_AARCH64_ABS64          .text+0x15ac
00000000000027f8 R_AARCH64_ABS64          .text+0x15e8
0000000000002800 R_AARCH64_ABS64          .text+0x15f0
0000000000002808 R_AARCH64_ABS64          .text+0x15f4
0000000000002820 R_AARCH64_ABS64          .text+0x15dc
0000000000002828 R_AARCH64_ABS64          .text+0x15e8
0000000000002830 R_AARCH64_ABS64          .text+0x15f0
0000000000002838 R_AARCH64_ABS64          .text+0x15f4
0000000000002850 R_AARCH64_ABS64          .text+0x1734
0000000000002858 R_AARCH64_ABS64          .text+0x1748
0000000000002860 R_AARCH64_ABS64          .text+0x1758
0000000000002868 R_AARCH64_ABS64          .text+0x175c
0000000000002880 R_AARCH64_ABS64          .text+0x1734
0000000000002888 R_AARCH64_ABS64          .text+0x1748
0000000000002890 R_AARCH64_ABS64          .text+0x1758
0000000000002898 R_AARCH64_ABS64          .text+0x175c
00000000000028b0 R_AARCH64_ABS64          .text+0x1734
00000000000028b8 R_AARCH64_ABS64          .text+0x1748
00000000000028c0 R_AARCH64_ABS64          .text+0x1758
00000000000028c8 R_AARCH64_ABS64          .text+0x175c
00000000000028e0 R_AARCH64_ABS64          .text
00000000000028e8 R_AARCH64_ABS64          .text+0x7c
00000000000028f0 R_AARCH64_ABS64          .text+0x7c
00000000000028f8 R_AARCH64_ABS64          .text+0x101c
0000000000002900 R_AARCH64_ABS64          .text+0x101c
0000000000002908 R_AARCH64_ABS64          .text+0x11e4
0000000000002910 R_AARCH64_ABS64          .text+0x11e4
0000000000002918 R_AARCH64_ABS64          .text+0x131c
0000000000002920 R_AARCH64_ABS64          .text+0x131c
0000000000002928 R_AARCH64_ABS64          .text+0x1388
0000000000002930 R_AARCH64_ABS64          .text+0x1388
0000000000002938 R_AARCH64_ABS64          .text+0x1764
0000000000002940 R_AARCH64_ABS64          .text._ZNSt3__110unique_ptrIN4WAVM8Platform5EventENS_14default_deleteIS3_EEED2Ev
0000000000002948 R_AARCH64_ABS64          .text._ZNSt3__110unique_ptrIN4WAVM8Platform5EventENS_14default_deleteIS3_EEED2Ev+0x3c
0000000000002950 R_AARCH64_ABS64          .text._ZN4WAVM7HashMapImP8WaitListNS_17DefaultHashPolicyImEEED2Ev
0000000000002958 R_AARCH64_ABS64          .text._ZN4WAVM7HashMapImP8WaitListNS_17DefaultHashPolicyImEEED2Ev+0x2c
0000000000002960 R_AARCH64_ABS64          .text._ZNSt3__16vectorIN4WAVM2IR13UntaggedValueENS_9allocatorIS3_EEEC2ESt16initializer_listIS3_E
0000000000002968 R_AARCH64_ABS64          .text._ZNSt3__16vectorIN4WAVM2IR13UntaggedValueENS_9allocatorIS3_EEEC2ESt16initializer_listIS3_E+0x98
0000000000002970 R_AARCH64_ABS64          .text._ZNSt3__120__throw_length_errorEPKc
0000000000002978 R_AARCH64_ABS64          .text._ZNSt3__120__throw_length_errorEPKc+0x50
0000000000002980 R_AARCH64_ABS64          .text._ZNSt12length_errorC2EPKc
0000000000002988 R_AARCH64_ABS64          .text._ZNSt12length_errorC2EPKc+0x30
0000000000002990 R_AARCH64_ABS64          .text._ZN4WAVM8Platform5Mutex4LockD2Ev
0000000000002998 R_AARCH64_ABS64          .text._ZN4WAVM8Platform5Mutex4LockD2Ev+0x30
00000000000029a0 R_AARCH64_ABS64          .text._ZN4WAVM7HashMapImP8WaitListNS_17DefaultHashPolicyImEEE3setIJRS2_EEES7_RKmDpOT_
00000000000029a8 R_AARCH64_ABS64          .text._ZN4WAVM7HashMapImP8WaitListNS_17DefaultHashPolicyImEEE3setIJRS2_EEES7_RKmDpOT_+0x254
00000000000029b0 R_AARCH64_ABS64          .text._ZN4WAVM9HashTableImNS_11HashMapPairImP8WaitListEENS_7HashMapImS3_NS_17DefaultHashPolicyImEEE15HashTablePolicyENS_27DefaultHashTableAllocPolicyEE6resizeEm
00000000000029b8 R_AARCH64_ABS64          .text._ZN4WAVM9HashTableImNS_11HashMapPairImP8WaitListEENS_7HashMapImS3_NS_17DefaultHashPolicyImEEE15HashTablePolicyENS_27DefaultHashTableAllocPolicyEE6resizeEm+0x210
00000000000029c0 R_AARCH64_ABS64          .text._ZN4WAVM9HashTableImNS_11HashMapPairImP8WaitListEENS_7HashMapImS3_NS_17DefaultHashPolicyImEEE15HashTablePolicyENS_27DefaultHashTableAllocPolicyEE6removeEmRKm
00000000000029c8 R_AARCH64_ABS64          .text._ZN4WAVM9HashTableImNS_11HashMapPairImP8WaitListEENS_7HashMapImS3_NS_17DefaultHashPolicyImEEE15HashTablePolicyENS_27DefaultHashTableAllocPolicyEE6removeEmRKm+0x19c
00000000000029d0 R_AARCH64_ABS64          .text._ZNSt3__110__function6__baseIFvvEED2Ev
00000000000029d8 R_AARCH64_ABS64          .text._ZNSt3__110__function6__baseIFvvEED2Ev+0x4

RELOCATION RECORDS FOR [.debug_addr]:
OFFSET           TYPE                     VALUE
0000000000000000 R_AARCH64_ABS64          .bss
0000000000000008 R_AARCH64_ABS64          .data.rel.ro
0000000000000010 R_AARCH64_ABS64          .data.rel.ro+0x70
0000000000000018 R_AARCH64_ABS64          .text
0000000000000020 R_AARCH64_ABS64          .text._ZNSt3__110unique_ptrIN4WAVM8Platform5EventENS_14default_deleteIS3_EEED2Ev
0000000000000028 R_AARCH64_ABS64          .text._ZNSt3__110unique_ptrIN4WAVM8Platform5EventENS_14default_deleteIS3_EEED2Ev+0xc
0000000000000030 R_AARCH64_ABS64          .text._ZNSt3__110unique_ptrIN4WAVM8Platform5EventENS_14default_deleteIS3_EEED2Ev+0x18
0000000000000038 R_AARCH64_ABS64          .text._ZN4WAVM7HashMapImP8WaitListNS_17DefaultHashPolicyImEEED2Ev
0000000000000040 R_AARCH64_ABS64          .text._ZN4WAVM7HashMapImP8WaitListNS_17DefaultHashPolicyImEEED2Ev+0x10
0000000000000048 R_AARCH64_ABS64          .text+0x7c
0000000000000050 R_AARCH64_ABS64          .text+0x98
0000000000000058 R_AARCH64_ABS64          .text+0xc0
0000000000000060 R_AARCH64_ABS64          .text+0xd0
0000000000000068 R_AARCH64_ABS64          .text+0xe0
0000000000000070 R_AARCH64_ABS64          .text+0x108
0000000000000078 R_AARCH64_ABS64          .text+0x1f8
0000000000000080 R_AARCH64_ABS64          .text+0x208
0000000000000088 R_AARCH64_ABS64          .text+0x250
0000000000000090 R_AARCH64_ABS64          .text+0x25c
0000000000000098 R_AARCH64_ABS64          .text+0x138
00000000000000a0 R_AARCH64_ABS64          .text+0x18c
00000000000000a8 R_AARCH64_ABS64          .text+0x1a4
00000000000000b0 R_AARCH64_ABS64          .text+0x188
00000000000000b8 R_AARCH64_ABS64          .text+0x1a8
00000000000000c0 R_AARCH64_ABS64          .text+0x224
00000000000000c8 R_AARCH64_ABS64          .text+0x238
00000000000000d0 R_AARCH64_ABS64          .text+0x244
00000000000000d8 R_AARCH64_ABS64          .text+0x134
00000000000000e0 R_AARCH64_ABS64          .text+0x1bc
00000000000000e8 R_AARCH64_ABS64          .text+0x210
00000000000000f0 R_AARCH64_ABS64          .text+0x21c
00000000000000f8 R_AARCH64_ABS64          .text+0x27c
0000000000000100 R_AARCH64_ABS64          .text+0x284
0000000000000108 R_AARCH64_ABS64          .text+0x89c
0000000000000110 R_AARCH64_ABS64          .text+0x91c
0000000000000118 R_AARCH64_ABS64          .text+0x92c
0000000000000120 R_AARCH64_ABS64          .text+0x2c0
0000000000000128 R_AARCH64_ABS64          .text+0x2d8
0000000000000130 R_AARCH64_ABS64          .text+0x2e0
0000000000000138 R_AARCH64_ABS64          .text+0x2f4
0000000000000140 R_AARCH64_ABS64          .text+0x304
0000000000000148 R_AARCH64_ABS64          .text+0x444
0000000000000150 R_AARCH64_ABS64          .text+0x7e4
0000000000000158 R_AARCH64_ABS64          .text+0x3b0
0000000000000160 R_AARCH64_ABS64          .text+0x4a4
0000000000000168 R_AARCH64_ABS64          .text+0x3f8
0000000000000170 R_AARCH64_ABS64          .text+0x400
0000000000000178 R_AARCH64_ABS64          .text+0x4f4
0000000000000180 R_AARCH64_ABS64          .text+0x50c
0000000000000188 R_AARCH64_ABS64          .text+0x540
0000000000000190 R_AARCH64_ABS64          .text+0x56c
0000000000000198 R_AARCH64_ABS64          .text+0x570
00000000000001a0 R_AARCH64_ABS64          .text+0x574
00000000000001a8 R_AARCH64_ABS64          .text+0x578
00000000000001b0 R_AARCH64_ABS64          .text+0x40c
00000000000001b8 R_AARCH64_ABS64          .text+0x8e8
00000000000001c0 R_AARCH64_ABS64          .text+0x738
00000000000001c8 R_AARCH64_ABS64          .text+0x5a4
00000000000001d0 R_AARCH64_ABS64          .text+0x5c4
00000000000001d8 R_AARCH64_ABS64          .text+0x5d8
00000000000001e0 R_AARCH64_ABS64          .text+0x5e4
00000000000001e8 R_AARCH64_ABS64          .text+0x780
00000000000001f0 R_AARCH64_ABS64          .text+0x628
00000000000001f8 R_AARCH64_ABS64          .text+0x638
0000000000000200 R_AARCH64_ABS64          .text+0x848
0000000000000208 R_AARCH64_ABS64          .text+0x878
0000000000000210 R_AARCH64_ABS64          .text+0x2b8
0000000000000218 R_AARCH64_ABS64          .text+0x2cc
0000000000000220 R_AARCH64_ABS64          .text+0x2d4
0000000000000228 R_AARCH64_ABS64          .text+0x32c
0000000000000230 R_AARCH64_ABS64          .text+0x424
0000000000000238 R_AARCH64_ABS64          .text+0x6b4
0000000000000240 R_AARCH64_ABS64          .text+0x6e8
0000000000000248 R_AARCH64_ABS64          .text+0x718
0000000000000250 R_AARCH64_ABS64          .text+0x8a4
0000000000000258 R_AARCH64_ABS64          .text+0x8b0
0000000000000260 R_AARCH64_ABS64          .text+0x8c0
0000000000000268 R_AARCH64_ABS64          .text+0x918
0000000000000270 R_AARCH64_ABS64          .text+0x948
0000000000000278 R_AARCH64_ABS64          .text+0x950
0000000000000280 R_AARCH64_ABS64          .text+0xf68
0000000000000288 R_AARCH64_ABS64          .text+0xfe8
0000000000000290 R_AARCH64_ABS64          .text+0xff8
0000000000000298 R_AARCH64_ABS64          .text+0x98c
00000000000002a0 R_AARCH64_ABS64          .text+0x9a4
00000000000002a8 R_AARCH64_ABS64          .text+0x9ac
00000000000002b0 R_AARCH64_ABS64          .text+0x9c0
00000000000002b8 R_AARCH64_ABS64          .text+0x9d0
00000000000002c0 R_AARCH64_ABS64          .text+0xb10
00000000000002c8 R_AARCH64_ABS64          .text+0xeb0
00000000000002d0 R_AARCH64_ABS64          .text+0xa7c
00000000000002d8 R_AARCH64_ABS64          .text+0xb70
00000000000002e0 R_AARCH64_ABS64          .text+0xac4
00000000000002e8 R_AARCH64_ABS64          .text+0xacc
00000000000002f0 R_AARCH64_ABS64          .text+0xbc0
00000000000002f8 R_AARCH64_ABS64          .text+0xbd8
0000000000000300 R_AARCH64_ABS64          .text+0xc0c
0000000000000308 R_AARCH64_ABS64          .text+0xc38
0000000000000310 R_AARCH64_ABS64          .text+0xc3c
0000000000000318 R_AARCH64_ABS64          .text+0xc40
0000000000000320 R_AARCH64_ABS64          .text+0xc44
0000000000000328 R_AARCH64_ABS64          .text+0xad8
0000000000000330 R_AARCH64_ABS64          .text+0xfb4
0000000000000338 R_AARCH64_ABS64          .text+0xe04
0000000000000340 R_AARCH64_ABS64          .text+0xc70
0000000000000348 R_AARCH64_ABS64          .text+0xc90
0000000000000350 R_AARCH64_ABS64          .text+0xca4
0000000000000358 R_AARCH64_ABS64          .text+0xcb0
0000000000000360 R_AARCH64_ABS64          .text+0xe4c
0000000000000368 R_AARCH64_ABS64          .text+0xcf4
0000000000000370 R_AARCH64_ABS64          .text+0xd04
0000000000000378 R_AARCH64_ABS64          .text+0xf14
0000000000000380 R_AARCH64_ABS64          .text+0xf44
0000000000000388 R_AARCH64_ABS64          .text+0x984
0000000000000390 R_AARCH64_ABS64          .text+0x998
0000000000000398 R_AARCH64_ABS64          .text+0x9a0
00000000000003a0 R_AARCH64_ABS64          .text+0x9f8
00000000000003a8 R_AARCH64_ABS64          .text+0xaf0
00000000000003b0 R_AARCH64_ABS64          .text+0xd80
00000000000003b8 R_AARCH64_ABS64          .text+0xdb4
00000000000003c0 R_AARCH64_ABS64          .text+0xde4
00000000000003c8 R_AARCH64_ABS64          .text+0xf70
00000000000003d0 R_AARCH64_ABS64          .text+0xf7c
00000000000003d8 R_AARCH64_ABS64          .text+0xf8c
00000000000003e0 R_AARCH64_ABS64          .text+0xfe4
00000000000003e8 R_AARCH64_ABS64          .text+0x1014
00000000000003f0 R_AARCH64_ABS64          .text._ZNSt3__16vectorIN4WAVM2IR13UntaggedValueENS_9allocatorIS3_EEEC2ESt16initializer_listIS3_E
00000000000003f8 R_AARCH64_ABS64          .text._ZNSt3__16vectorIN4WAVM2IR13UntaggedValueENS_9allocatorIS3_EEEC2ESt16initializer_listIS3_E+0x10
0000000000000400 R_AARCH64_ABS64          .text._ZNSt3__16vectorIN4WAVM2IR13UntaggedValueENS_9allocatorIS3_EEEC2ESt16initializer_listIS3_E+0x2c
0000000000000408 R_AARCH64_ABS64          .text._ZNSt3__16vectorIN4WAVM2IR13UntaggedValueENS_9allocatorIS3_EEEC2ESt16initializer_listIS3_E+0x30
0000000000000410 R_AARCH64_ABS64          .text._ZNSt3__16vectorIN4WAVM2IR13UntaggedValueENS_9allocatorIS3_EEEC2ESt16initializer_listIS3_E+0x5c
0000000000000418 R_AARCH64_ABS64          .text._ZNSt3__16vectorIN4WAVM2IR13UntaggedValueENS_9allocatorIS3_EEEC2ESt16initializer_listIS3_E+0x78
0000000000000420 R_AARCH64_ABS64          .text._ZNSt3__16vectorIN4WAVM2IR13UntaggedValueENS_9allocatorIS3_EEEC2ESt16initializer_listIS3_E+0x88
0000000000000428 R_AARCH64_ABS64          .text._ZNSt3__120__throw_length_errorEPKc
0000000000000430 R_AARCH64_ABS64          .text._ZNSt3__120__throw_length_errorEPKc+0x24
0000000000000438 R_AARCH64_ABS64          .text._ZNSt12length_errorC2EPKc
0000000000000440 R_AARCH64_ABS64          .text+0x101c
0000000000000448 R_AARCH64_ABS64          .text+0x102c
0000000000000450 R_AARCH64_ABS64          .text+0x1048
0000000000000458 R_AARCH64_ABS64          .text+0x10f8
0000000000000460 R_AARCH64_ABS64          .text+0x1130
0000000000000468 R_AARCH64_ABS64          .text+0x10dc
0000000000000470 R_AARCH64_ABS64          .text+0x114c
0000000000000478 R_AARCH64_ABS64          .text+0x1170
0000000000000480 R_AARCH64_ABS64          .text+0x1178
0000000000000488 R_AARCH64_ABS64          .text+0x1198
0000000000000490 R_AARCH64_ABS64          .text+0x11dc
0000000000000498 R_AARCH64_ABS64          .text._ZN4WAVM8Platform5Mutex4LockD2Ev
00000000000004a0 R_AARCH64_ABS64          .text._ZN4WAVM8Platform5Mutex4LockD2Ev+0x10
00000000000004a8 R_AARCH64_ABS64          .text+0x11e4
00000000000004b0 R_AARCH64_ABS64          .text+0x11f8
00000000000004b8 R_AARCH64_ABS64          .text+0x120c
00000000000004c0 R_AARCH64_ABS64          .text+0x1220
00000000000004c8 R_AARCH64_ABS64          .text+0x1228
00000000000004d0 R_AARCH64_ABS64          .text+0x1230
00000000000004d8 R_AARCH64_ABS64          .text+0x1234
00000000000004e0 R_AARCH64_ABS64          .text+0x1248
00000000000004e8 R_AARCH64_ABS64          .text+0x126c
00000000000004f0 R_AARCH64_ABS64          .text+0x12e8
00000000000004f8 R_AARCH64_ABS64          .text+0x1310
0000000000000500 R_AARCH64_ABS64          .text._ZN4WAVM7HashMapImP8WaitListNS_17DefaultHashPolicyImEEE3setIJRS2_EEES7_RKmDpOT_
0000000000000508 R_AARCH64_ABS64          .text._ZN4WAVM7HashMapImP8WaitListNS_17DefaultHashPolicyImEEE3setIJRS2_EEES7_RKmDpOT_+0xc4
0000000000000510 R_AARCH64_ABS64          .text._ZN4WAVM7HashMapImP8WaitListNS_17DefaultHashPolicyImEEE3setIJRS2_EEES7_RKmDpOT_+0xd0
0000000000000518 R_AARCH64_ABS64          .text._ZN4WAVM7HashMapImP8WaitListNS_17DefaultHashPolicyImEEE3setIJRS2_EEES7_RKmDpOT_+0x120
0000000000000520 R_AARCH64_ABS64          .text._ZN4WAVM7HashMapImP8WaitListNS_17DefaultHashPolicyImEEE3setIJRS2_EEES7_RKmDpOT_+0x184
0000000000000528 R_AARCH64_ABS64          .text._ZN4WAVM7HashMapImP8WaitListNS_17DefaultHashPolicyImEEE3setIJRS2_EEES7_RKmDpOT_+0x1b4
0000000000000530 R_AARCH64_ABS64          .text._ZN4WAVM7HashMapImP8WaitListNS_17DefaultHashPolicyImEEE3setIJRS2_EEES7_RKmDpOT_+0x16c
0000000000000538 R_AARCH64_ABS64          .text._ZN4WAVM7HashMapImP8WaitListNS_17DefaultHashPolicyImEEE3setIJRS2_EEES7_RKmDpOT_+0x15c
0000000000000540 R_AARCH64_ABS64          .text._ZN4WAVM7HashMapImP8WaitListNS_17DefaultHashPolicyImEEE3setIJRS2_EEES7_RKmDpOT_+0x230
0000000000000548 R_AARCH64_ABS64          .text._ZN4WAVM7HashMapImP8WaitListNS_17DefaultHashPolicyImEEE3setIJRS2_EEES7_RKmDpOT_+0x114
0000000000000550 R_AARCH64_ABS64          .text._ZN4WAVM9HashTableImNS_11HashMapPairImP8WaitListEENS_7HashMapImS3_NS_17DefaultHashPolicyImEEE15HashTablePolicyENS_27DefaultHashTableAllocPolicyEE6resizeEm
0000000000000558 R_AARCH64_ABS64          .text._ZN4WAVM9HashTableImNS_11HashMapPairImP8WaitListEENS_7HashMapImS3_NS_17DefaultHashPolicyImEEE15HashTablePolicyENS_27DefaultHashTableAllocPolicyEE6resizeEm+0x18
0000000000000560 R_AARCH64_ABS64          .text._ZN4WAVM9HashTableImNS_11HashMapPairImP8WaitListEENS_7HashMapImS3_NS_17DefaultHashPolicyImEEE15HashTablePolicyENS_27DefaultHashTableAllocPolicyEE6resizeEm+0xa0
0000000000000568 R_AARCH64_ABS64          .text._ZN4WAVM9HashTableImNS_11HashMapPairImP8WaitListEENS_7HashMapImS3_NS_17DefaultHashPolicyImEEE15HashTablePolicyENS_27DefaultHashTableAllocPolicyEE6resizeEm+0xd4
0000000000000570 R_AARCH64_ABS64          .text._ZN4WAVM9HashTableImNS_11HashMapPairImP8WaitListEENS_7HashMapImS3_NS_17DefaultHashPolicyImEEE15HashTablePolicyENS_27DefaultHashTableAllocPolicyEE6resizeEm+0x140
0000000000000578 R_AARCH64_ABS64          .text._ZN4WAVM9HashTableImNS_11HashMapPairImP8WaitListEENS_7HashMapImS3_NS_17DefaultHashPolicyImEEE15HashTablePolicyENS_27DefaultHashTableAllocPolicyEE6resizeEm+0x170
0000000000000580 R_AARCH64_ABS64          .text._ZN4WAVM9HashTableImNS_11HashMapPairImP8WaitListEENS_7HashMapImS3_NS_17DefaultHashPolicyImEEE15HashTablePolicyENS_27DefaultHashTableAllocPolicyEE6resizeEm+0x128
0000000000000588 R_AARCH64_ABS64          .text._ZN4WAVM9HashTableImNS_11HashMapPairImP8WaitListEENS_7HashMapImS3_NS_17DefaultHashPolicyImEEE15HashTablePolicyENS_27DefaultHashTableAllocPolicyEE6resizeEm+0x118
0000000000000590 R_AARCH64_ABS64          .text._ZN4WAVM9HashTableImNS_11HashMapPairImP8WaitListEENS_7HashMapImS3_NS_17DefaultHashPolicyImEEE15HashTablePolicyENS_27DefaultHashTableAllocPolicyEE6resizeEm+0xdc
0000000000000598 R_AARCH64_ABS64          .text._ZN4WAVM9HashTableImNS_11HashMapPairImP8WaitListEENS_7HashMapImS3_NS_17DefaultHashPolicyImEEE15HashTablePolicyENS_27DefaultHashTableAllocPolicyEE6resizeEm+0x8c
00000000000005a0 R_AARCH64_ABS64          .text._ZN4WAVM9HashTableImNS_11HashMapPairImP8WaitListEENS_7HashMapImS3_NS_17DefaultHashPolicyImEEE15HashTablePolicyENS_27DefaultHashTableAllocPolicyEE6removeEmRKm
00000000000005a8 R_AARCH64_ABS64          .text._ZN4WAVM9HashTableImNS_11HashMapPairImP8WaitListEENS_7HashMapImS3_NS_17DefaultHashPolicyImEEE15HashTablePolicyENS_27DefaultHashTableAllocPolicyEE6removeEmRKm+0x2c
00000000000005b0 R_AARCH64_ABS64          .text._ZN4WAVM9HashTableImNS_11HashMapPairImP8WaitListEENS_7HashMapImS3_NS_17DefaultHashPolicyImEEE15HashTablePolicyENS_27DefaultHashTableAllocPolicyEE6removeEmRKm+0x64
00000000000005b8 R_AARCH64_ABS64          .text._ZN4WAVM9HashTableImNS_11HashMapPairImP8WaitListEENS_7HashMapImS3_NS_17DefaultHashPolicyImEEE15HashTablePolicyENS_27DefaultHashTableAllocPolicyEE6removeEmRKm+0x90
00000000000005c0 R_AARCH64_ABS64          .text._ZN4WAVM9HashTableImNS_11HashMapPairImP8WaitListEENS_7HashMapImS3_NS_17DefaultHashPolicyImEEE15HashTablePolicyENS_27DefaultHashTableAllocPolicyEE6removeEmRKm+0x178
00000000000005c8 R_AARCH64_ABS64          .text._ZN4WAVM9HashTableImNS_11HashMapPairImP8WaitListEENS_7HashMapImS3_NS_17DefaultHashPolicyImEEE15HashTablePolicyENS_27DefaultHashTableAllocPolicyEE6removeEmRKm+0x18c
00000000000005d0 R_AARCH64_ABS64          .text+0x131c
00000000000005d8 R_AARCH64_ABS64          .text+0x1320
00000000000005e0 R_AARCH64_ABS64          .text+0x1330
00000000000005e8 R_AARCH64_ABS64          .text+0x1358
00000000000005f0 R_AARCH64_ABS64          .text+0x1364
00000000000005f8 R_AARCH64_ABS64          .text+0x1370
0000000000000600 R_AARCH64_ABS64          .text+0x1374
0000000000000608 R_AARCH64_ABS64          .text+0x1378
0000000000000610 R_AARCH64_ABS64          .text+0x137c
0000000000000618 R_AARCH64_ABS64          .text._ZNSt3__110__function6__baseIFvvEED2Ev
0000000000000620 R_AARCH64_ABS64          .text+0x1388
0000000000000628 R_AARCH64_ABS64          .text+0x138c
0000000000000630 R_AARCH64_ABS64          .text+0x139c
0000000000000638 R_AARCH64_ABS64          .text+0x13c4
0000000000000640 R_AARCH64_ABS64          .text+0x13d0
0000000000000648 R_AARCH64_ABS64          .text+0x13dc
0000000000000650 R_AARCH64_ABS64          .text+0x13e0
0000000000000658 R_AARCH64_ABS64          .text+0x13e4
0000000000000660 R_AARCH64_ABS64          .text+0x13e8
0000000000000668 R_AARCH64_ABS64          .text+0x13f4
0000000000000670 R_AARCH64_ABS64          .text+0x140c
0000000000000678 R_AARCH64_ABS64          .text+0x143c
0000000000000680 R_AARCH64_ABS64          .text+0x146c
0000000000000688 R_AARCH64_ABS64          .text+0x14d8
0000000000000690 R_AARCH64_ABS64          .text+0x153c
0000000000000698 R_AARCH64_ABS64          .text+0x15ac
00000000000006a0 R_AARCH64_ABS64          .text+0x16f0
00000000000006a8 R_AARCH64_ABS64          .text+0x1734
00000000000006b0 R_AARCH64_ABS64          .text._ZNSt3__110unique_ptrIN4WAVM8Platform5EventENS_14default_deleteIS3_EEED2Ev+0x1c
00000000000006b8 R_AARCH64_ABS64          .text._ZNSt3__110unique_ptrIN4WAVM8Platform5EventENS_14default_deleteIS3_EEED2Ev+0x30
00000000000006c0 R_AARCH64_ABS64          .text._ZNSt3__110unique_ptrIN4WAVM8Platform5EventENS_14default_deleteIS3_EEED2Ev+0x10
00000000000006c8 R_AARCH64_ABS64          .text+0xa4
00000000000006d0 R_AARCH64_ABS64          .text+0x9c
00000000000006d8 R_AARCH64_ABS64          .text+0xac
00000000000006e0 R_AARCH64_ABS64          .text+0xb0
00000000000006e8 R_AARCH64_ABS64          .text+0xc8
00000000000006f0 R_AARCH64_ABS64          .text+0xd4
00000000000006f8 R_AARCH64_ABS64          .text+0xfc
0000000000000700 R_AARCH64_ABS64          .text+0x12c
0000000000000708 R_AARCH64_ABS64          .text+0x1e0
0000000000000710 R_AARCH64_ABS64          .text+0x1e8
0000000000000718 R_AARCH64_ABS64          .text+0x200
0000000000000720 R_AARCH64_ABS64          .text+0x104
0000000000000728 R_AARCH64_ABS64          .text+0x158
0000000000000730 R_AARCH64_ABS64          .text+0x100
0000000000000738 R_AARCH64_ABS64          .text+0x118
0000000000000740 R_AARCH64_ABS64          .text+0x24c
0000000000000748 R_AARCH64_ABS64          .text+0x120
0000000000000750 R_AARCH64_ABS64          .text+0x160
0000000000000758 R_AARCH64_ABS64          .text+0x164
0000000000000760 R_AARCH64_ABS64          .text+0x270
0000000000000768 R_AARCH64_ABS64          .text+0x16c
0000000000000770 R_AARCH64_ABS64          .text+0x190
0000000000000778 R_AARCH64_ABS64          .text+0x240
0000000000000780 R_AARCH64_ABS64          .text+0x258
0000000000000788 R_AARCH64_ABS64          .text+0x2a8
0000000000000790 R_AARCH64_ABS64          .text+0x2d0
0000000000000798 R_AARCH64_ABS64          .text+0x880
00000000000007a0 R_AARCH64_ABS64          .text+0x894
00000000000007a8 R_AARCH64_ABS64          .text+0x2b4
00000000000007b0 R_AARCH64_ABS64          .text+0x378
00000000000007b8 R_AARCH64_ABS64          .text+0x7cc
00000000000007c0 R_AARCH64_ABS64          .text+0x8c4
00000000000007c8 R_AARCH64_ABS64          .text+0x8d4
00000000000007d0 R_AARCH64_ABS64          .text+0x2b0
00000000000007d8 R_AARCH64_ABS64          .text+0x530
00000000000007e0 R_AARCH64_ABS64          .text+0x674
00000000000007e8 R_AARCH64_ABS64          .text+0x8b4
00000000000007f0 R_AARCH64_ABS64          .text+0x2ac
00000000000007f8 R_AARCH64_ABS64          .text+0x70c
0000000000000800 R_AARCH64_ABS64          .text+0x8e4
0000000000000808 R_AARCH64_ABS64          .text+0x93c
0000000000000810 R_AARCH64_ABS64          .text+0x940
0000000000000818 R_AARCH64_ABS64          .text+0x2ec
0000000000000820 R_AARCH64_ABS64          .text+0x2f0
0000000000000828 R_AARCH64_ABS64          .text+0x330
0000000000000830 R_AARCH64_ABS64          .text+0x3a8
0000000000000838 R_AARCH64_ABS64          .text+0x824
0000000000000840 R_AARCH64_ABS64          .text+0x3fc
0000000000000848 R_AARCH64_ABS64          .text+0x458
0000000000000850 R_AARCH64_ABS64          .text+0x4b8
0000000000000858 R_AARCH64_ABS64          .text+0x504
0000000000000860 R_AARCH64_ABS64          .text+0x52c
0000000000000868 R_AARCH64_ABS64          .text+0x548
0000000000000870 R_AARCH64_ABS64          .text+0x54c
0000000000000878 R_AARCH64_ABS64          .text+0x550
0000000000000880 R_AARCH64_ABS64          .text+0x558
0000000000000888 R_AARCH64_ABS64          .text+0x678
0000000000000890 R_AARCH64_ABS64          .text+0x67c
0000000000000898 R_AARCH64_ABS64          .text+0x680
00000000000008a0 R_AARCH64_ABS64          .text+0x688
00000000000008a8 R_AARCH64_ABS64          .text+0x534
00000000000008b0 R_AARCH64_ABS64          .text+0x554
00000000000008b8 R_AARCH64_ABS64          .text+0x684
00000000000008c0 R_AARCH64_ABS64          .text+0x58c
00000000000008c8 R_AARCH64_ABS64          .text+0x690
00000000000008d0 R_AARCH64_ABS64          .text+0x830
00000000000008d8 R_AARCH64_ABS64          .text+0x8d8
00000000000008e0 R_AARCH64_ABS64          .text+0x614
00000000000008e8 R_AARCH64_ABS64          .text+0x7c0
00000000000008f0 R_AARCH64_ABS64          .text+0x6cc
00000000000008f8 R_AARCH64_ABS64          .text+0x644
0000000000000900 R_AARCH64_ABS64          .text+0x648
0000000000000908 R_AARCH64_ABS64          .text+0x64c
0000000000000910 R_AARCH64_ABS64          .text+0x664
0000000000000918 R_AARCH64_ABS64          .text+0x668
0000000000000920 R_AARCH64_ABS64          .text+0x6d8
0000000000000928 R_AARCH64_ABS64          .text+0x74c
0000000000000930 R_AARCH64_ABS64          .text+0x794
0000000000000938 R_AARCH64_ABS64          .text+0x7f8
0000000000000940 R_AARCH64_ABS64          .text+0x85c
0000000000000948 R_AARCH64_ABS64          .text+0x8f0
0000000000000950 R_AARCH64_ABS64          .text+0x924
0000000000000958 R_AARCH64_ABS64          .text+0x930
0000000000000960 R_AARCH64_ABS64          .text+0x974
0000000000000968 R_AARCH64_ABS64          .text+0x99c
0000000000000970 R_AARCH64_ABS64          .text+0xf4c
0000000000000978 R_AARCH64_ABS64          .text+0xf60
0000000000000980 R_AARCH64_ABS64          .text+0x980
0000000000000988 R_AARCH64_ABS64          .text+0xa44
0000000000000990 R_AARCH64_ABS64          .text+0xe98
0000000000000998 R_AARCH64_ABS64          .text+0xf90
00000000000009a0 R_AARCH64_ABS64          .text+0xfa0
00000000000009a8 R_AARCH64_ABS64          .text+0x97c
00000000000009b0 R_AARCH64_ABS64          .text+0xbfc
00000000000009b8 R_AARCH64_ABS64          .text+0xd40
00000000000009c0 R_AARCH64_ABS64          .text+0xf80
00000000000009c8 R_AARCH64_ABS64          .text+0x978
00000000000009d0 R_AARCH64_ABS64          .text+0xdd8
00000000000009d8 R_AARCH64_ABS64          .text+0xfb0
00000000000009e0 R_AARCH64_ABS64          .text+0x1008
00000000000009e8 R_AARCH64_ABS64          .text+0x100c
00000000000009f0 R_AARCH64_ABS64          .text+0x9b8
00000000000009f8 R_AARCH64_ABS64          .text+0x9bc
0000000000000a00 R_AARCH64_ABS64          .text+0x9fc
0000000000000a08 R_AARCH64_ABS64          .text+0xa74
0000000000000a10 R_AARCH64_ABS64          .text+0xef0
0000000000000a18 R_AARCH64_ABS64          .text+0xac8
0000000000000a20 R_AARCH64_ABS64          .text+0xb24
0000000000000a28 R_AARCH64_ABS64          .text+0xb84
0000000000000a30 R_AARCH64_ABS64          .text+0xbd0
0000000000000a38 R_AARCH64_ABS64          .text+0xbf8
0000000000000a40 R_AARCH64_ABS64          .text+0xc14
0000000000000a48 R_AARCH64_ABS64          .text+0xc18
0000000000000a50 R_AARCH64_ABS64          .text+0xc1c
0000000000000a58 R_AARCH64_ABS64          .text+0xc24
0000000000000a60 R_AARCH64_ABS64          .text+0xd44
0000000000000a68 R_AARCH64_ABS64          .text+0xd48
0000000000000a70 R_AARCH64_ABS64          .text+0xd4c
0000000000000a78 R_AARCH64_ABS64          .text+0xd54
0000000000000a80 R_AARCH64_ABS64          .text+0xc00
0000000000000a88 R_AARCH64_ABS64          .text+0xc20
0000000000000a90 R_AARCH64_ABS64          .text+0xd50
0000000000000a98 R_AARCH64_ABS64          .text+0xc58
0000000000000aa0 R_AARCH64_ABS64          .text+0xd5c
0000000000000aa8 R_AARCH64_ABS64          .text+0xefc
0000000000000ab0 R_AARCH64_ABS64          .text+0xfa4
0000000000000ab8 R_AARCH64_ABS64          .text+0xce0
0000000000000ac0 R_AARCH64_ABS64          .text+0xe8c
0000000000000ac8 R_AARCH64_ABS64          .text+0xd98
0000000000000ad0 R_AARCH64_ABS64          .text+0xd10
0000000000000ad8 R_AARCH64_ABS64          .text+0xd14
0000000000000ae0 R_AARCH64_ABS64          .text+0xd18
0000000000000ae8 R_AARCH64_ABS64          .text+0xd30
0000000000000af0 R_AARCH64_ABS64          .text+0xd34
0000000000000af8 R_AARCH64_ABS64          .text+0xda4
0000000000000b00 R_AARCH64_ABS64          .text+0xe18
0000000000000b08 R_AARCH64_ABS64          .text+0xe60
0000000000000b10 R_AARCH64_ABS64          .text+0xec4
0000000000000b18 R_AARCH64_ABS64          .text+0xf28
0000000000000b20 R_AARCH64_ABS64          .text+0xfbc
0000000000000b28 R_AARCH64_ABS64          .text+0xff0
0000000000000b30 R_AARCH64_ABS64          .text+0xffc
0000000000000b38 R_AARCH64_ABS64          .text._ZNSt3__16vectorIN4WAVM2IR13UntaggedValueENS_9allocatorIS3_EEEC2ESt16initializer_listIS3_E+0x20
0000000000000b40 R_AARCH64_ABS64          .text._ZNSt3__16vectorIN4WAVM2IR13UntaggedValueENS_9allocatorIS3_EEEC2ESt16initializer_listIS3_E+0x70
0000000000000b48 R_AARCH64_ABS64          .text._ZNSt3__16vectorIN4WAVM2IR13UntaggedValueENS_9allocatorIS3_EEEC2ESt16initializer_listIS3_E+0x38
0000000000000b50 R_AARCH64_ABS64          .text._ZNSt3__16vectorIN4WAVM2IR13UntaggedValueENS_9allocatorIS3_EEEC2ESt16initializer_listIS3_E+0x48
0000000000000b58 R_AARCH64_ABS64          .text._ZNSt3__16vectorIN4WAVM2IR13UntaggedValueENS_9allocatorIS3_EEEC2ESt16initializer_listIS3_E+0x58
0000000000000b60 R_AARCH64_ABS64          .text._ZNSt3__16vectorIN4WAVM2IR13UntaggedValueENS_9allocatorIS3_EEEC2ESt16initializer_listIS3_E+0x80
0000000000000b68 R_AARCH64_ABS64          .text._ZNSt3__16vectorIN4WAVM2IR13UntaggedValueENS_9allocatorIS3_EEEC2ESt16initializer_listIS3_E+0x8c
0000000000000b70 R_AARCH64_ABS64          .text._ZNSt3__120__throw_length_errorEPKc+0x10
0000000000000b78 R_AARCH64_ABS64          .text._ZNSt3__120__throw_length_errorEPKc+0x20
0000000000000b80 R_AARCH64_ABS64          .text._ZNSt12length_errorC2EPKc+0x10
0000000000000b88 R_AARCH64_ABS64          .text._ZNSt12length_errorC2EPKc+0x28
0000000000000b90 R_AARCH64_ABS64          .text._ZNSt12length_errorC2EPKc+0x14
0000000000000b98 R_AARCH64_ABS64          .text+0x1038
0000000000000ba0 R_AARCH64_ABS64          .text+0x115c
0000000000000ba8 R_AARCH64_ABS64          .text+0x1164
0000000000000bb0 R_AARCH64_ABS64          .text+0x103c
0000000000000bb8 R_AARCH64_ABS64          .text+0x1040
0000000000000bc0 R_AARCH64_ABS64          .text+0x10e4
0000000000000bc8 R_AARCH64_ABS64          .text+0x10e0
0000000000000bd0 R_AARCH64_ABS64          .text+0x10f0
0000000000000bd8 R_AARCH64_ABS64          .text+0x1114
0000000000000be0 R_AARCH64_ABS64          .text+0x111c
0000000000000be8 R_AARCH64_ABS64          .text+0x10fc
0000000000000bf0 R_AARCH64_ABS64          .text+0x1108
0000000000000bf8 R_AARCH64_ABS64          .text+0x1148
0000000000000c00 R_AARCH64_ABS64          .text+0x1158
0000000000000c08 R_AARCH64_ABS64          .text+0x11a4
0000000000000c10 R_AARCH64_ABS64          .text+0x11bc
0000000000000c18 R_AARCH64_ABS64          .text+0x119c
0000000000000c20 R_AARCH64_ABS64          .text._ZN4WAVM8Platform5Mutex4LockD2Ev+0x2c
0000000000000c28 R_AARCH64_ABS64          .text+0x1210
0000000000000c30 R_AARCH64_ABS64          .text+0x1304
0000000000000c38 R_AARCH64_ABS64          .text+0x1218
0000000000000c40 R_AARCH64_ABS64          .text+0x1318
0000000000000c48 R_AARCH64_ABS64          .text+0x1214
0000000000000c50 R_AARCH64_ABS64          .text+0x1274
0000000000000c58 R_AARCH64_ABS64          .text+0x127c
0000000000000c60 R_AARCH64_ABS64          .text+0x128c
0000000000000c68 R_AARCH64_ABS64          .text+0x1298
0000000000000c70 R_AARCH64_ABS64          .text+0x129c
0000000000000c78 R_AARCH64_ABS64          .text+0x12b0
0000000000000c80 R_AARCH64_ABS64          .text+0x12b8
0000000000000c88 R_AARCH64_ABS64          .text+0x12bc
0000000000000c90 R_AARCH64_ABS64          .text+0x12cc
0000000000000c98 R_AARCH64_ABS64          .text+0x12d4
0000000000000ca0 R_AARCH64_ABS64          .text._ZN4WAVM7HashMapImP8WaitListNS_17DefaultHashPolicyImEEE3setIJRS2_EEES7_RKmDpOT_+0xb4
0000000000000ca8 R_AARCH64_ABS64          .text._ZN4WAVM7HashMapImP8WaitListNS_17DefaultHashPolicyImEEE3setIJRS2_EEES7_RKmDpOT_+0xb0
0000000000000cb0 R_AARCH64_ABS64          .text._ZN4WAVM7HashMapImP8WaitListNS_17DefaultHashPolicyImEEE3setIJRS2_EEES7_RKmDpOT_+0x240
0000000000000cb8 R_AARCH64_ABS64          .text._ZN4WAVM7HashMapImP8WaitListNS_17DefaultHashPolicyImEEE3setIJRS2_EEES7_RKmDpOT_+0xac
0000000000000cc0 R_AARCH64_ABS64          .text._ZN4WAVM7HashMapImP8WaitListNS_17DefaultHashPolicyImEEE3setIJRS2_EEES7_RKmDpOT_+0x40
0000000000000cc8 R_AARCH64_ABS64          .text._ZN4WAVM7HashMapImP8WaitListNS_17DefaultHashPolicyImEEE3setIJRS2_EEES7_RKmDpOT_+0x48
0000000000000cd0 R_AARCH64_ABS64          .text._ZN4WAVM7HashMapImP8WaitListNS_17DefaultHashPolicyImEEE3setIJRS2_EEES7_RKmDpOT_+0x58
0000000000000cd8 R_AARCH64_ABS64          .text._ZN4WAVM7HashMapImP8WaitListNS_17DefaultHashPolicyImEEE3setIJRS2_EEES7_RKmDpOT_+0x64
0000000000000ce0 R_AARCH64_ABS64          .text._ZN4WAVM7HashMapImP8WaitListNS_17DefaultHashPolicyImEEE3setIJRS2_EEES7_RKmDpOT_+0x68
0000000000000ce8 R_AARCH64_ABS64          .text._ZN4WAVM7HashMapImP8WaitListNS_17DefaultHashPolicyImEEE3setIJRS2_EEES7_RKmDpOT_+0x7c
0000000000000cf0 R_AARCH64_ABS64          .text._ZN4WAVM7HashMapImP8WaitListNS_17DefaultHashPolicyImEEE3setIJRS2_EEES7_RKmDpOT_+0x8c
0000000000000cf8 R_AARCH64_ABS64          .text._ZN4WAVM7HashMapImP8WaitListNS_17DefaultHashPolicyImEEE3setIJRS2_EEES7_RKmDpOT_+0x98
0000000000000d00 R_AARCH64_ABS64          .text._ZN4WAVM7HashMapImP8WaitListNS_17DefaultHashPolicyImEEE3setIJRS2_EEES7_RKmDpOT_+0xa0
0000000000000d08 R_AARCH64_ABS64          .text._ZN4WAVM7HashMapImP8WaitListNS_17DefaultHashPolicyImEEE3setIJRS2_EEES7_RKmDpOT_+0xa4
0000000000000d10 R_AARCH64_ABS64          .text._ZN4WAVM7HashMapImP8WaitListNS_17DefaultHashPolicyImEEE3setIJRS2_EEES7_RKmDpOT_+0xa8
0000000000000d18 R_AARCH64_ABS64          .text._ZN4WAVM7HashMapImP8WaitListNS_17DefaultHashPolicyImEEE3setIJRS2_EEES7_RKmDpOT_+0xbc
0000000000000d20 R_AARCH64_ABS64          .text._ZN4WAVM7HashMapImP8WaitListNS_17DefaultHashPolicyImEEE3setIJRS2_EEES7_RKmDpOT_+0xf4
0000000000000d28 R_AARCH64_ABS64          .text._ZN4WAVM7HashMapImP8WaitListNS_17DefaultHashPolicyImEEE3setIJRS2_EEES7_RKmDpOT_+0x100
0000000000000d30 R_AARCH64_ABS64          .text._ZN4WAVM7HashMapImP8WaitListNS_17DefaultHashPolicyImEEE3setIJRS2_EEES7_RKmDpOT_+0x124
0000000000000d38 R_AARCH64_ABS64          .text._ZN4WAVM7HashMapImP8WaitListNS_17DefaultHashPolicyImEEE3setIJRS2_EEES7_RKmDpOT_+0x130
0000000000000d40 R_AARCH64_ABS64          .text._ZN4WAVM7HashMapImP8WaitListNS_17DefaultHashPolicyImEEE3setIJRS2_EEES7_RKmDpOT_+0x17c
0000000000000d48 R_AARCH64_ABS64          .text._ZN4WAVM7HashMapImP8WaitListNS_17DefaultHashPolicyImEEE3setIJRS2_EEES7_RKmDpOT_+0x144
0000000000000d50 R_AARCH64_ABS64          .text._ZN4WAVM7HashMapImP8WaitListNS_17DefaultHashPolicyImEEE3setIJRS2_EEES7_RKmDpOT_+0x170
0000000000000d58 R_AARCH64_ABS64          .text._ZN4WAVM7HashMapImP8WaitListNS_17DefaultHashPolicyImEEE3setIJRS2_EEES7_RKmDpOT_+0x190
0000000000000d60 R_AARCH64_ABS64          .text._ZN4WAVM7HashMapImP8WaitListNS_17DefaultHashPolicyImEEE3setIJRS2_EEES7_RKmDpOT_+0x1b8
0000000000000d68 R_AARCH64_ABS64          .text._ZN4WAVM7HashMapImP8WaitListNS_17DefaultHashPolicyImEEE3setIJRS2_EEES7_RKmDpOT_+0x1dc
0000000000000d70 R_AARCH64_ABS64          .text._ZN4WAVM7HashMapImP8WaitListNS_17DefaultHashPolicyImEEE3setIJRS2_EEES7_RKmDpOT_+0x1a8
0000000000000d78 R_AARCH64_ABS64          .text._ZN4WAVM7HashMapImP8WaitListNS_17DefaultHashPolicyImEEE3setIJRS2_EEES7_RKmDpOT_+0x1f4
0000000000000d80 R_AARCH64_ABS64          .text._ZN4WAVM7HashMapImP8WaitListNS_17DefaultHashPolicyImEEE3setIJRS2_EEES7_RKmDpOT_+0x20c
0000000000000d88 R_AARCH64_ABS64          .text._ZN4WAVM7HashMapImP8WaitListNS_17DefaultHashPolicyImEEE3setIJRS2_EEES7_RKmDpOT_+0x218
0000000000000d90 R_AARCH64_ABS64          .text._ZN4WAVM7HashMapImP8WaitListNS_17DefaultHashPolicyImEEE3setIJRS2_EEES7_RKmDpOT_+0x22c
0000000000000d98 R_AARCH64_ABS64          .text._ZN4WAVM9HashTableImNS_11HashMapPairImP8WaitListEENS_7HashMapImS3_NS_17DefaultHashPolicyImEEE15HashTablePolicyENS_27DefaultHashTableAllocPolicyEE6resizeEm+0x24
0000000000000da0 R_AARCH64_ABS64          .text._ZN4WAVM9HashTableImNS_11HashMapPairImP8WaitListEENS_7HashMapImS3_NS_17DefaultHashPolicyImEEE15HashTablePolicyENS_27DefaultHashTableAllocPolicyEE6resizeEm+0x1f8
0000000000000da8 R_AARCH64_ABS64          .text._ZN4WAVM9HashTableImNS_11HashMapPairImP8WaitListEENS_7HashMapImS3_NS_17DefaultHashPolicyImEEE15HashTablePolicyENS_27DefaultHashTableAllocPolicyEE6resizeEm+0x28
0000000000000db0 R_AARCH64_ABS64          .text._ZN4WAVM9HashTableImNS_11HashMapPairImP8WaitListEENS_7HashMapImS3_NS_17DefaultHashPolicyImEEE15HashTablePolicyENS_27DefaultHashTableAllocPolicyEE6resizeEm+0x1e8
0000000000000db8 R_AARCH64_ABS64          .text._ZN4WAVM9HashTableImNS_11HashMapPairImP8WaitListEENS_7HashMapImS3_NS_17DefaultHashPolicyImEEE15HashTablePolicyENS_27DefaultHashTableAllocPolicyEE6resizeEm+0x200
0000000000000dc0 R_AARCH64_ABS64          .text._ZN4WAVM9HashTableImNS_11HashMapPairImP8WaitListEENS_7HashMapImS3_NS_17DefaultHashPolicyImEEE15HashTablePolicyENS_27DefaultHashTableAllocPolicyEE6resizeEm+0x1c
0000000000000dc8 R_AARCH64_ABS64          .text._ZN4WAVM9HashTableImNS_11HashMapPairImP8WaitListEENS_7HashMapImS3_NS_17DefaultHashPolicyImEEE15HashTablePolicyENS_27DefaultHashTableAllocPolicyEE6resizeEm+0x20
0000000000000dd0 R_AARCH64_ABS64          .text._ZN4WAVM9HashTableImNS_11HashMapPairImP8WaitListEENS_7HashMapImS3_NS_17DefaultHashPolicyImEEE15HashTablePolicyENS_27DefaultHashTableAllocPolicyEE6resizeEm+0xcc
0000000000000dd8 R_AARCH64_ABS64          .text._ZN4WAVM9HashTableImNS_11HashMapPairImP8WaitListEENS_7HashMapImS3_NS_17DefaultHashPolicyImEEE15HashTablePolicyENS_27DefaultHashTableAllocPolicyEE6resizeEm+0xd8
0000000000000de0 R_AARCH64_ABS64          .text._ZN4WAVM9HashTableImNS_11HashMapPairImP8WaitListEENS_7HashMapImS3_NS_17DefaultHashPolicyImEEE15HashTablePolicyENS_27DefaultHashTableAllocPolicyEE6resizeEm+0xe0
0000000000000de8 R_AARCH64_ABS64          .text._ZN4WAVM9HashTableImNS_11HashMapPairImP8WaitListEENS_7HashMapImS3_NS_17DefaultHashPolicyImEEE15HashTablePolicyENS_27DefaultHashTableAllocPolicyEE6resizeEm+0xec
0000000000000df0 R_AARCH64_ABS64          .text._ZN4WAVM9HashTableImNS_11HashMapPairImP8WaitListEENS_7HashMapImS3_NS_17DefaultHashPolicyImEEE15HashTablePolicyENS_27DefaultHashTableAllocPolicyEE6resizeEm+0x138
0000000000000df8 R_AARCH64_ABS64          .text._ZN4WAVM9HashTableImNS_11HashMapPairImP8WaitListEENS_7HashMapImS3_NS_17DefaultHashPolicyImEEE15HashTablePolicyENS_27DefaultHashTableAllocPolicyEE6resizeEm+0x100
0000000000000e00 R_AARCH64_ABS64          .text._ZN4WAVM9HashTableImNS_11HashMapPairImP8WaitListEENS_7HashMapImS3_NS_17DefaultHashPolicyImEEE15HashTablePolicyENS_27DefaultHashTableAllocPolicyEE6resizeEm+0x12c
0000000000000e08 R_AARCH64_ABS64          .text._ZN4WAVM9HashTableImNS_11HashMapPairImP8WaitListEENS_7HashMapImS3_NS_17DefaultHashPolicyImEEE15HashTablePolicyENS_27DefaultHashTableAllocPolicyEE6resizeEm+0x14c
0000000000000e10 R_AARCH64_ABS64          .text._ZN4WAVM9HashTableImNS_11HashMapPairImP8WaitListEENS_7HashMapImS3_NS_17DefaultHashPolicyImEEE15HashTablePolicyENS_27DefaultHashTableAllocPolicyEE6resizeEm+0x198
0000000000000e18 R_AARCH64_ABS64          .text._ZN4WAVM9HashTableImNS_11HashMapPairImP8WaitListEENS_7HashMapImS3_NS_17DefaultHashPolicyImEEE15HashTablePolicyENS_27DefaultHashTableAllocPolicyEE6resizeEm+0x164
0000000000000e20 R_AARCH64_ABS64          .text._ZN4WAVM9HashTableImNS_11HashMapPairImP8WaitListEENS_7HashMapImS3_NS_17DefaultHashPolicyImEEE15HashTablePolicyENS_27DefaultHashTableAllocPolicyEE6resizeEm+0x1b0
0000000000000e28 R_AARCH64_ABS64          .text._ZN4WAVM9HashTableImNS_11HashMapPairImP8WaitListEENS_7HashMapImS3_NS_17DefaultHashPolicyImEEE15HashTablePolicyENS_27DefaultHashTableAllocPolicyEE6resizeEm+0x1c8
0000000000000e30 R_AARCH64_ABS64          .text._ZN4WAVM9HashTableImNS_11HashMapPairImP8WaitListEENS_7HashMapImS3_NS_17DefaultHashPolicyImEEE15HashTablePolicyENS_27DefaultHashTableAllocPolicyEE6removeEmRKm+0xe4
0000000000000e38 R_AARCH64_ABS64          .text._ZN4WAVM9HashTableImNS_11HashMapPairImP8WaitListEENS_7HashMapImS3_NS_17DefaultHashPolicyImEEE15HashTablePolicyENS_27DefaultHashTableAllocPolicyEE6removeEmRKm+0xec
0000000000000e40 R_AARCH64_ABS64          .text._ZN4WAVM9HashTableImNS_11HashMapPairImP8WaitListEENS_7HashMapImS3_NS_17DefaultHashPolicyImEEE15HashTablePolicyENS_27DefaultHashTableAllocPolicyEE6removeEmRKm+0xf4
0000000000000e48 R_AARCH64_ABS64          .text._ZN4WAVM9HashTableImNS_11HashMapPairImP8WaitListEENS_7HashMapImS3_NS_17DefaultHashPolicyImEEE15HashTablePolicyENS_27DefaultHashTableAllocPolicyEE6removeEmRKm+0xfc
0000000000000e50 R_AARCH64_ABS64          .text._ZN4WAVM9HashTableImNS_11HashMapPairImP8WaitListEENS_7HashMapImS3_NS_17DefaultHashPolicyImEEE15HashTablePolicyENS_27DefaultHashTableAllocPolicyEE6removeEmRKm+0x20
0000000000000e58 R_AARCH64_ABS64          .text._ZN4WAVM9HashTableImNS_11HashMapPairImP8WaitListEENS_7HashMapImS3_NS_17DefaultHashPolicyImEEE15HashTablePolicyENS_27DefaultHashTableAllocPolicyEE6removeEmRKm+0xdc
0000000000000e60 R_AARCH64_ABS64          .text._ZN4WAVM9HashTableImNS_11HashMapPairImP8WaitListEENS_7HashMapImS3_NS_17DefaultHashPolicyImEEE15HashTablePolicyENS_27DefaultHashTableAllocPolicyEE6removeEmRKm+0x48
0000000000000e68 R_AARCH64_ABS64          .text._ZN4WAVM9HashTableImNS_11HashMapPairImP8WaitListEENS_7HashMapImS3_NS_17DefaultHashPolicyImEEE15HashTablePolicyENS_27DefaultHashTableAllocPolicyEE6removeEmRKm+0x50
0000000000000e70 R_AARCH64_ABS64          .text._ZN4WAVM9HashTableImNS_11HashMapPairImP8WaitListEENS_7HashMapImS3_NS_17DefaultHashPolicyImEEE15HashTablePolicyENS_27DefaultHashTableAllocPolicyEE6removeEmRKm+0x30
0000000000000e78 R_AARCH64_ABS64          .text._ZN4WAVM9HashTableImNS_11HashMapPairImP8WaitListEENS_7HashMapImS3_NS_17DefaultHashPolicyImEEE15HashTablePolicyENS_27DefaultHashTableAllocPolicyEE6removeEmRKm+0x3c
0000000000000e80 R_AARCH64_ABS64          .text._ZN4WAVM9HashTableImNS_11HashMapPairImP8WaitListEENS_7HashMapImS3_NS_17DefaultHashPolicyImEEE15HashTablePolicyENS_27DefaultHashTableAllocPolicyEE6removeEmRKm+0x70
0000000000000e88 R_AARCH64_ABS64          .text._ZN4WAVM9HashTableImNS_11HashMapPairImP8WaitListEENS_7HashMapImS3_NS_17DefaultHashPolicyImEEE15HashTablePolicyENS_27DefaultHashTableAllocPolicyEE6removeEmRKm+0x100
0000000000000e90 R_AARCH64_ABS64          .text._ZN4WAVM9HashTableImNS_11HashMapPairImP8WaitListEENS_7HashMapImS3_NS_17DefaultHashPolicyImEEE15HashTablePolicyENS_27DefaultHashTableAllocPolicyEE6removeEmRKm+0xb4
0000000000000e98 R_AARCH64_ABS64          .text._ZN4WAVM9HashTableImNS_11HashMapPairImP8WaitListEENS_7HashMapImS3_NS_17DefaultHashPolicyImEEE15HashTablePolicyENS_27DefaultHashTableAllocPolicyEE6removeEmRKm+0x10c
0000000000000ea0 R_AARCH64_ABS64          .text._ZN4WAVM9HashTableImNS_11HashMapPairImP8WaitListEENS_7HashMapImS3_NS_17DefaultHashPolicyImEEE15HashTablePolicyENS_27DefaultHashTableAllocPolicyEE6removeEmRKm+0xc0
0000000000000ea8 R_AARCH64_ABS64          .text._ZN4WAVM9HashTableImNS_11HashMapPairImP8WaitListEENS_7HashMapImS3_NS_17DefaultHashPolicyImEEE15HashTablePolicyENS_27DefaultHashTableAllocPolicyEE6removeEmRKm+0x78
0000000000000eb0 R_AARCH64_ABS64          .text._ZN4WAVM9HashTableImNS_11HashMapPairImP8WaitListEENS_7HashMapImS3_NS_17DefaultHashPolicyImEEE15HashTablePolicyENS_27DefaultHashTableAllocPolicyEE6removeEmRKm+0xc8
0000000000000eb8 R_AARCH64_ABS64          .text._ZN4WAVM9HashTableImNS_11HashMapPairImP8WaitListEENS_7HashMapImS3_NS_17DefaultHashPolicyImEEE15HashTablePolicyENS_27DefaultHashTableAllocPolicyEE6removeEmRKm+0x94
0000000000000ec0 R_AARCH64_ABS64          .text._ZN4WAVM9HashTableImNS_11HashMapPairImP8WaitListEENS_7HashMapImS3_NS_17DefaultHashPolicyImEEE15HashTablePolicyENS_27DefaultHashTableAllocPolicyEE6removeEmRKm+0x16c
0000000000000ec8 R_AARCH64_ABS64          .text+0x1338
0000000000000ed0 R_AARCH64_ABS64          .text+0x1350
0000000000000ed8 R_AARCH64_ABS64          .text+0x13a4
0000000000000ee0 R_AARCH64_ABS64          .text+0x13bc
0000000000000ee8 R_AARCH64_ABS64          .text+0x1448
0000000000000ef0 R_AARCH64_ABS64          .text+0x14a0
0000000000000ef8 R_AARCH64_ABS64          .text+0x1508
0000000000000f00 R_AARCH64_ABS64          .text+0x1574
0000000000000f08 R_AARCH64_ABS64          .text+0x15dc
0000000000000f10 R_AARCH64_ABS64          .text+0x1748

RELOCATION RECORDS FOR [.debug_gnu_pubnames]:
OFFSET           TYPE                     VALUE
0000000000000006 R_AARCH64_ABS32          .debug_info

RELOCATION RECORDS FOR [.debug_gnu_pubtypes]:
OFFSET           TYPE                     VALUE
0000000000000006 R_AARCH64_ABS32          .debug_info

RELOCATION RECORDS FOR [.data.DW.ref.__gxx_personality_v0]:
OFFSET           TYPE                     VALUE
0000000000000000 R_AARCH64_ABS64          __gxx_personality_v0

RELOCATION RECORDS FOR [.eh_frame]:
OFFSET           TYPE                     VALUE
000000000000001c R_AARCH64_PREL32         .text
0000000000000038 R_AARCH64_PREL32         .text._ZNSt3__110unique_ptrIN4WAVM8Platform5EventENS_14default_deleteIS3_EEED2Ev
0000000000000054 R_AARCH64_PREL32         .text._ZN4WAVM7HashMapImP8WaitListNS_17DefaultHashPolicyImEEED2Ev
0000000000000070 R_AARCH64_PREL32         .text.__clang_call_terminate
0000000000000088 R_AARCH64_PREL32         .text._ZNSt12length_errorC2EPKc
00000000000000a4 R_AARCH64_PREL32         .text._ZN4WAVM7HashMapImP8WaitListNS_17DefaultHashPolicyImEEE3setIJRS2_EEES7_RKmDpOT_
00000000000000c8 R_AARCH64_PREL32         .text._ZN4WAVM9HashTableImNS_11HashMapPairImP8WaitListEENS_7HashMapImS3_NS_17DefaultHashPolicyImEEE15HashTablePolicyENS_27DefaultHashTableAllocPolicyEE6resizeEm
00000000000000f0 R_AARCH64_PREL32         .text._ZN4WAVM9HashTableImNS_11HashMapPairImP8WaitListEENS_7HashMapImS3_NS_17DefaultHashPolicyImEEE15HashTablePolicyENS_27DefaultHashTableAllocPolicyEE6removeEmRKm
000000000000010c R_AARCH64_PREL32         .text._ZTW15threadWakeEvent
0000000000000128 R_AARCH64_PREL32         .text+0x131c
000000000000013c R_AARCH64_PREL32         .text+0x1320
0000000000000158 R_AARCH64_PREL32         .text+0x1358
000000000000016c R_AARCH64_PREL32         .text+0x1370
0000000000000180 R_AARCH64_PREL32         .text+0x1374
0000000000000194 R_AARCH64_PREL32         .text+0x1378
00000000000001a8 R_AARCH64_PREL32         .text._ZNSt3__110__function6__baseIFvvEED2Ev
00000000000001bc R_AARCH64_PREL32         .text+0x1388
00000000000001d0 R_AARCH64_PREL32         .text+0x138c
00000000000001ec R_AARCH64_PREL32         .text+0x13c4
0000000000000200 R_AARCH64_PREL32         .text+0x13dc
0000000000000214 R_AARCH64_PREL32         .text+0x13e0
0000000000000228 R_AARCH64_PREL32         .text+0x13e4
000000000000023c R_AARCH64_PREL32         .text+0x13f4
0000000000000260 R_AARCH64_PREL32         .text+0x16f0
0000000000000287 R_AARCH64_PREL64         DW.ref.__gxx_personality_v0
000000000000029c R_AARCH64_PREL32         .text+0x7c
00000000000002a5 R_AARCH64_PREL64         .gcc_except_table
00000000000002c0 R_AARCH64_PREL32         .text+0xe0
00000000000002c9 R_AARCH64_PREL64         .gcc_except_table+0x10
00000000000002ec R_AARCH64_PREL32         .text+0x284
00000000000002f5 R_AARCH64_PREL64         .gcc_except_table+0x4c
0000000000000324 R_AARCH64_PREL32         .text+0x950
000000000000032d R_AARCH64_PREL64         .gcc_except_table+0xd0
000000000000035c R_AARCH64_PREL32         .text._ZNSt3__16vectorIN4WAVM2IR13UntaggedValueENS_9allocatorIS3_EEEC2ESt16initializer_listIS3_E
0000000000000365 R_AARCH64_PREL64         .gcc_except_table._ZNSt3__16vectorIN4WAVM2IR13UntaggedValueENS_9allocatorIS3_EEEC2ESt16initializer_listIS3_E
0000000000000388 R_AARCH64_PREL32         .text._ZNSt3__120__throw_length_errorEPKc
0000000000000391 R_AARCH64_PREL64         .gcc_except_table._ZNSt3__120__throw_length_errorEPKc
00000000000003b0 R_AARCH64_PREL32         .text+0x101c
00000000000003b9 R_AARCH64_PREL64         .gcc_except_table+0x154
00000000000003d8 R_AARCH64_PREL32         .text._ZN4WAVM8Platform5Mutex4LockD2Ev
00000000000003e1 R_AARCH64_PREL64         .gcc_except_table._ZN4WAVM8Platform5Mutex4LockD2Ev
00000000000003fc R_AARCH64_PREL32         .text+0x11e4
0000000000000405 R_AARCH64_PREL64         .gcc_except_table+0x188

RELOCATION RECORDS FOR [.debug_line]:
OFFSET           TYPE                     VALUE
000000000000082e R_AARCH64_ABS64          .text
00000000000018ad R_AARCH64_ABS64          .text._ZNSt3__110unique_ptrIN4WAVM8Platform5EventENS_14default_deleteIS3_EEED2Ev
00000000000018dc R_AARCH64_ABS64          .text._ZN4WAVM7HashMapImP8WaitListNS_17DefaultHashPolicyImEEED2Ev
000000000000190b R_AARCH64_ABS64          .text._ZNSt3__16vectorIN4WAVM2IR13UntaggedValueENS_9allocatorIS3_EEEC2ESt16initializer_listIS3_E
00000000000019b2 R_AARCH64_ABS64          .text._ZNSt3__120__throw_length_errorEPKc
00000000000019e0 R_AARCH64_ABS64          .text._ZNSt12length_errorC2EPKc
0000000000001a01 R_AARCH64_ABS64          .text._ZN4WAVM8Platform5Mutex4LockD2Ev
0000000000001a2c R_AARCH64_ABS64          .text._ZN4WAVM7HashMapImP8WaitListNS_17DefaultHashPolicyImEEE3setIJRS2_EEES7_RKmDpOT_
0000000000001c12 R_AARCH64_ABS64          .text._ZN4WAVM9HashTableImNS_11HashMapPairImP8WaitListEENS_7HashMapImS3_NS_17DefaultHashPolicyImEEE15HashTablePolicyENS_27DefaultHashTableAllocPolicyEE6resizeEm
0000000000001d9b R_AARCH64_ABS64          .text._ZN4WAVM9HashTableImNS_11HashMapPairImP8WaitListEENS_7HashMapImS3_NS_17DefaultHashPolicyImEEE15HashTablePolicyENS_27DefaultHashTableAllocPolicyEE6removeEmRKm
0000000000001ee8 R_AARCH64_ABS64          .text._ZNSt3__110__function6__baseIFvvEED2Ev
